ccopy_reg
_reconstructor
p0
(cchris_ros_modeling.deployments.action
ActionBank
p1
c__builtin__
object
p2
Ntp3
Rp4
(dp5
S'names_to_metamodels'
p6
(dp7
S'/rrbot/position_controller/follow_joint_trajectory'
p8
g0
(cchris_ros_modeling.deployments.action
Action
p9
g2
Ntp10
Rp11
(dp12
S'server_node_names'
p13
c__builtin__
set
p14
((lp15
S'/gazebo'
p16
atp17
Rp18
sS'name'
p19
S'/rrbot/position_controller/follow_joint_trajectory'
p20
sS'suffix_names_to_topics'
p21
(dp22
S'/status'
p23
g0
(cchris_ros_modeling.deployments.topic
Topic
p24
g2
Ntp25
Rp26
(dp27
S'publisher_node_names'
p28
g14
((lp29
S'/gazebo'
p30
atp31
Rp32
sS'construct_type'
p33
S'actionlib_msgs/GoalStatusArray'
p34
sg19
S'/rrbot/position_controller/follow_joint_trajectory/status'
p35
sS'subscriber_node_names'
p36
g14
((lp37
S'/rrbot_control_action_19653_1598754066562'
p38
atp39
Rp40
sS'source'
p41
S'ros_snapshot'
p42
sS'version'
p43
I0
sbsS'/result'
p44
g0
(g24
g2
Ntp45
Rp46
(dp47
g28
g14
((lp48
S'/gazebo'
p49
atp50
Rp51
sg33
S'control_msgs/FollowJointTrajectoryActionResult'
p52
sg19
S'/rrbot/position_controller/follow_joint_trajectory/result'
p53
sg36
g14
((lp54
S'/rrbot_control_action_19653_1598754066562'
p55
atp56
Rp57
sg41
S'ros_snapshot'
p58
sg43
I0
sbsS'/feedback'
p59
g0
(g24
g2
Ntp60
Rp61
(dp62
g28
g14
((lp63
S'/gazebo'
p64
atp65
Rp66
sg33
S'control_msgs/FollowJointTrajectoryActionFeedback'
p67
sg19
S'/rrbot/position_controller/follow_joint_trajectory/feedback'
p68
sg36
g14
((lp69
S'/rrbot_control_action_19653_1598754066562'
p70
atp71
Rp72
sg41
S'ros_snapshot'
p73
sg43
I0
sbsS'/cancel'
p74
g0
(g24
g2
Ntp75
Rp76
(dp77
g28
g14
((lp78
S'/rrbot_control_action_19653_1598754066562'
p79
atp80
Rp81
sg33
S'actionlib_msgs/GoalID'
p82
sg19
S'/rrbot/position_controller/follow_joint_trajectory/cancel'
p83
sg36
g14
((lp84
S'/gazebo'
p85
atp86
Rp87
sg41
S'ros_snapshot'
p88
sg43
I0
sbsS'/goal'
p89
g0
(g24
g2
Ntp90
Rp91
(dp92
g28
g14
((lp93
S'/rrbot_control_action_19653_1598754066562'
p94
atp95
Rp96
sg33
S'control_msgs/FollowJointTrajectoryActionGoal'
p97
sg19
S'/rrbot/position_controller/follow_joint_trajectory/goal'
p98
sg36
g14
((lp99
S'/gazebo'
p100
atp101
Rp102
sg41
S'ros_snapshot'
p103
sg43
I0
sbssS'client_node_names'
p104
g14
((lp105
S'/rrbot_control_action_19653_1598754066562'
p106
atp107
Rp108
sg41
S'ros_snapshot'
p109
sg43
I0
sg33
S'control_msgs/FollowJointTrajectory'
p110
sbssb.