ccopy_reg
_reconstructor
p0
(cchris_ros_modeling.deployments.parameter
ParameterBank
p1
c__builtin__
object
p2
Ntp3
Rp4
(dp5
S'names_to_metamodels'
p6
(dp7
S'/rrbot/position_controller/gains/joint1/d'
p8
g0
(cchris_ros_modeling.deployments.parameter
Parameter
p9
g2
Ntp10
Rp11
(dp12
S'name'
p13
S'/rrbot/position_controller/gains/joint1/d'
p14
sS'python_type'
p15
S'float'
p16
sS'reading_node_names'
p17
c__builtin__
set
p18
((lp19
tp20
Rp21
sS'value'
p22
F10.0
sS'setting_node_names'
p23
g18
((lp24
tp25
Rp26
sS'source'
p27
S'haros_chris_model_merger, ros_snapshot'
p28
sS'version'
p29
I1
sS'launch_file'
p30
S'/home/conner/TurtleBot_Devel/src/ros_probe/chris_rrbot_modeling/launch/rrbot_control_action.launch'
p31
sbsS'/rrbot/position_controller/gains/joint2/antiwindup'
p32
g0
(g9
g2
Ntp33
Rp34
(dp35
g13
S'/rrbot/position_controller/gains/joint2/antiwindup'
p36
sg15
S'bool'
p37
sg17
g18
((lp38
tp39
Rp40
sg22
I00
sg23
g18
((lp41
tp42
Rp43
sg27
S'ros_snapshot'
p44
sg29
I0
sbsS'/gazebo/contact_max_correcting_vel'
p45
g0
(g9
g2
Ntp46
Rp47
(dp48
g13
S'/gazebo/contact_max_correcting_vel'
p49
sg15
S'float'
p50
sg17
g18
((lp51
tp52
Rp53
sg22
F100.0
sg23
g18
((lp54
tp55
Rp56
sg27
S'ros_snapshot'
p57
sg29
I0
sbsS'/roslaunch/uris/host_XX.XX.XX_157__35989'
p58
g0
(g9
g2
Ntp59
Rp60
(dp61
g13
S'/roslaunch/uris/host_XX.XX.XX_157__35989'
p62
sg15
S'str'
p63
sg17
g18
((lp64
tp65
Rp66
sg22
S'http://XX.XX.XX.157:35989/'
p67
sg23
g18
((lp68
tp69
Rp70
sg27
S'ros_snapshot'
p71
sg29
I0
sbsS'/gazebo/cfm'
p72
g0
(g9
g2
Ntp73
Rp74
(dp75
g13
S'/gazebo/cfm'
p76
sg15
S'float'
p77
sg17
g18
((lp78
tp79
Rp80
sg22
F0.0
sg23
g18
((lp81
tp82
Rp83
sg27
S'ros_snapshot'
p84
sg29
I0
sbsS'/rrbot/camera1/image_raw/compressedDepth/depth_max'
p85
g0
(g9
g2
Ntp86
Rp87
(dp88
g13
S'/rrbot/camera1/image_raw/compressedDepth/depth_max'
p89
sg15
S'float'
p90
sg17
g18
((lp91
tp92
Rp93
sg22
F10.0
sg23
g18
((lp94
tp95
Rp96
sg27
S'ros_snapshot'
p97
sg29
I0
sbsS'/rrbot/joint_state_controller/publish_rate'
p98
g0
(g9
g2
Ntp99
Rp100
(dp101
g13
S'/rrbot/joint_state_controller/publish_rate'
p102
sg15
S'int'
p103
sg17
g18
((lp104
tp105
Rp106
sg22
I50
sg23
g18
((lp107
tp108
Rp109
sg27
S'haros_chris_model_merger, ros_snapshot'
p110
sg29
I1
sg30
g31
sbsS'/rrbot/position_controller/gains/joint1/i'
p111
g0
(g9
g2
Ntp112
Rp113
(dp114
g13
S'/rrbot/position_controller/gains/joint1/i'
p115
sg15
S'float'
p116
sg17
g18
((lp117
tp118
Rp119
sg22
F0.01
sg23
g18
((lp120
tp121
Rp122
sg27
S'haros_chris_model_merger, ros_snapshot'
p123
sg29
I1
sg30
g31
sbsS'/gazebo/enable_ros_network'
p124
g0
(g9
g2
Ntp125
Rp126
(dp127
g13
S'/gazebo/enable_ros_network'
p128
sg15
S'bool'
p129
sg17
g18
((lp130
tp131
Rp132
sg22
I01
sg23
g18
((lp133
tp134
Rp135
sg27
S'ros_snapshot'
p136
sg29
I0
sbsS'/gazebo/max_update_rate'
p137
g0
(g9
g2
Ntp138
Rp139
(dp140
g13
S'/gazebo/max_update_rate'
p141
sg15
S'float'
p142
sg17
g18
((lp143
tp144
Rp145
sg22
F1000.0
sg23
g18
((lp146
tp147
Rp148
sg27
S'ros_snapshot'
p149
sg29
I0
sbsS'/gazebo/sor_pgs_w'
p150
g0
(g9
g2
Ntp151
Rp152
(dp153
g13
S'/gazebo/sor_pgs_w'
p154
sg15
S'float'
p155
sg17
g18
((lp156
tp157
Rp158
sg22
F1.3
sg23
g18
((lp159
tp160
Rp161
sg27
S'ros_snapshot'
p162
sg29
I0
sbsS'/rrbot/joint_state_controller/type'
p163
g0
(g9
g2
Ntp164
Rp165
(dp166
g13
S'/rrbot/joint_state_controller/type'
p167
sg15
S'str'
p168
sg17
g18
((lp169
tp170
Rp171
sg22
S'joint_state_controller/JointStateController'
p172
sg23
g18
((lp173
tp174
Rp175
sg27
S'haros_chris_model_merger, ros_snapshot'
p176
sg29
I1
sg30
g31
sbsS'/rrbot/camera1/image_raw/compressed/png_level'
p177
g0
(g9
g2
Ntp178
Rp179
(dp180
g13
S'/rrbot/camera1/image_raw/compressed/png_level'
p181
sg15
S'int'
p182
sg17
g18
((lp183
tp184
Rp185
sg22
I9
sg23
g18
((lp186
tp187
Rp188
sg27
S'ros_snapshot'
p189
sg29
I0
sbsS'/rrbot/camera1/image_raw/compressed/format'
p190
g0
(g9
g2
Ntp191
Rp192
(dp193
g13
S'/rrbot/camera1/image_raw/compressed/format'
p194
sg15
S'str'
p195
sg17
g18
((lp196
tp197
Rp198
sg22
S'jpeg'
p199
sg23
g18
((lp200
tp201
Rp202
sg27
S'ros_snapshot'
p203
sg29
I0
sbsS'/rrbot/position_controller/type'
p204
g0
(g9
g2
Ntp205
Rp206
(dp207
g13
S'/rrbot/position_controller/type'
p208
sg15
S'str'
p209
sg17
g18
((lp210
tp211
Rp212
sg22
S'effort_controllers/JointTrajectoryController'
p213
sg23
g18
((lp214
tp215
Rp216
sg27
S'haros_chris_model_merger, ros_snapshot'
p217
sg29
I1
sg30
g31
sbsS'/gazebo/contact_surface_layer'
p218
g0
(g9
g2
Ntp219
Rp220
(dp221
g13
S'/gazebo/contact_surface_layer'
p222
sg15
S'float'
p223
sg17
g18
((lp224
tp225
Rp226
sg22
F0.001
sg23
g18
((lp227
tp228
Rp229
sg27
S'ros_snapshot'
p230
sg29
I0
sbsS'/roslaunch/uris/host_XX.XX.XX_157__42865'
p231
g0
(g9
g2
Ntp232
Rp233
(dp234
g13
S'/roslaunch/uris/host_XX.XX.XX_157__42865'
p235
sg15
S'str'
p236
sg17
g18
((lp237
tp238
Rp239
sg22
S'http://XX.XX.XX.157:42865/'
p240
sg23
g18
((lp241
tp242
Rp243
sg27
S'ros_snapshot'
p244
sg29
I0
sbsS'/rrbot/camera1/image_raw/theora/keyframe_frequency'
p245
g0
(g9
g2
Ntp246
Rp247
(dp248
g13
S'/rrbot/camera1/image_raw/theora/keyframe_frequency'
p249
sg15
S'int'
p250
sg17
g18
((lp251
tp252
Rp253
sg22
I64
sg23
g18
((lp254
tp255
Rp256
sg27
S'ros_snapshot'
p257
sg29
I0
sbsS'/roslaunch/uris/host_XX.XX.XX_216__45113'
p258
g0
(g9
g2
Ntp259
Rp260
(dp261
g13
S'/roslaunch/uris/host_XX.XX.XX_216__45113'
p262
sg15
S'str'
p263
sg17
g18
((lp264
tp265
Rp266
sg22
S'http://XX.XX.XX.216:45113/'
p267
sg23
g18
((lp268
tp269
Rp270
sg27
S'ros_snapshot'
p271
sg29
I0
sbsS'/gazebo/max_contacts'
p272
g0
(g9
g2
Ntp273
Rp274
(dp275
g13
S'/gazebo/max_contacts'
p276
sg15
S'int'
p277
sg17
g18
((lp278
tp279
Rp280
sg22
I20
sg23
g18
((lp281
tp282
Rp283
sg27
S'ros_snapshot'
p284
sg29
I0
sbsS'/ignore_timestamp'
p285
g0
(g9
g2
Ntp286
Rp287
(dp288
g13
g285
sg15
Nsg17
g18
((lp289
S'/robot_state_publisher'
p290
atp291
Rp292
sg22
Nsg23
g18
((lp293
tp294
Rp295
sg27
S'haros_chris_model_merger'
p296
sg29
I0
sbsS'/run_id'
p297
g0
(g9
g2
Ntp298
Rp299
(dp300
g13
S'/run_id'
p301
sg15
S'str'
p302
sg17
g18
((lp303
tp304
Rp305
sg22
S'c274d628-ea66-11ea-b2b8-f8b156abe24c'
p306
sg23
g18
((lp307
tp308
Rp309
sg27
S'ros_snapshot'
p310
sg29
I0
sbsS'/rrbot/camera1/image_raw/compressed/jpeg_quality'
p311
g0
(g9
g2
Ntp312
Rp313
(dp314
g13
S'/rrbot/camera1/image_raw/compressed/jpeg_quality'
p315
sg15
S'int'
p316
sg17
g18
((lp317
tp318
Rp319
sg22
I80
sg23
g18
((lp320
tp321
Rp322
sg27
S'ros_snapshot'
p323
sg29
I0
sbsS'/gazebo/time_step'
p324
g0
(g9
g2
Ntp325
Rp326
(dp327
g13
S'/gazebo/time_step'
p328
sg15
S'float'
p329
sg17
g18
((lp330
tp331
Rp332
sg22
F0.001
sg23
g18
((lp333
tp334
Rp335
sg27
S'ros_snapshot'
p336
sg29
I0
sbsS'/rrbot/camera1/image_raw/compressedDepth/png_level'
p337
g0
(g9
g2
Ntp338
Rp339
(dp340
g13
S'/rrbot/camera1/image_raw/compressedDepth/png_level'
p341
sg15
S'int'
p342
sg17
g18
((lp343
tp344
Rp345
sg22
I9
sg23
g18
((lp346
tp347
Rp348
sg27
S'ros_snapshot'
p349
sg29
I0
sbsS'/gazebo/erp'
p350
g0
(g9
g2
Ntp351
Rp352
(dp353
g13
S'/gazebo/erp'
p354
sg15
S'float'
p355
sg17
g18
((lp356
tp357
Rp358
sg22
F0.2
sg23
g18
((lp359
tp360
Rp361
sg27
S'ros_snapshot'
p362
sg29
I0
sbsS'/rrbot/camera1/image_raw/theora/target_bitrate'
p363
g0
(g9
g2
Ntp364
Rp365
(dp366
g13
S'/rrbot/camera1/image_raw/theora/target_bitrate'
p367
sg15
S'int'
p368
sg17
g18
((lp369
tp370
Rp371
sg22
I800000
sg23
g18
((lp372
tp373
Rp374
sg27
S'ros_snapshot'
p375
sg29
I0
sbsS'/rosdistro'
p376
g0
(g9
g2
Ntp377
Rp378
(dp379
g13
S'/rosdistro'
p380
sg15
S'str'
p381
sg17
g18
((lp382
tp383
Rp384
sg22
S'melodic'
p385
sg23
g18
((lp386
tp387
Rp388
sg27
S'ros_snapshot'
p389
sg29
I0
sbsS'/use_sim_time'
p390
g0
(g9
g2
Ntp391
Rp392
(dp393
g13
S'/use_sim_time'
p394
sg15
S'bool'
p395
sg17
g18
((lp396
tp397
Rp398
sg22
I01
sg23
g18
((lp399
tp400
Rp401
sg27
S'haros_chris_model_merger, ros_snapshot'
p402
sg29
I1
sg30
S'/opt/ros/kinetic/share/gazebo_ros/launch/empty_world.launch'
p403
sbsS'/tf_prefix'
p404
g0
(g9
g2
Ntp405
Rp406
(dp407
g13
g404
sg15
Nsg17
g18
((lp408
g290
atp409
Rp410
sg22
Nsg23
g18
((lp411
tp412
Rp413
sg27
g296
sg29
I0
sbsS'/publish_frequency'
p414
g0
(g9
g2
Ntp415
Rp416
(dp417
g13
g414
sg15
Nsg17
g18
((lp418
g290
atp419
Rp420
sg22
Nsg23
g18
((lp421
tp422
Rp423
sg27
g296
sg29
I0
sbsS'/use_tf_static'
p424
g0
(g9
g2
Ntp425
Rp426
(dp427
g13
g424
sg15
Nsg17
g18
((lp428
g290
atp429
Rp430
sg22
Nsg23
g18
((lp431
tp432
Rp433
sg27
g296
sg29
I0
sbsS'/rrbot/camera1/image_raw/compressedDepth/depth_quantization'
p434
g0
(g9
g2
Ntp435
Rp436
(dp437
g13
S'/rrbot/camera1/image_raw/compressedDepth/depth_quantization'
p438
sg15
S'float'
p439
sg17
g18
((lp440
tp441
Rp442
sg22
F100.0
sg23
g18
((lp443
tp444
Rp445
sg27
S'ros_snapshot'
p446
sg29
I0
sbsS'/rrbot/camera1/image_raw/theora/quality'
p447
g0
(g9
g2
Ntp448
Rp449
(dp450
g13
S'/rrbot/camera1/image_raw/theora/quality'
p451
sg15
S'int'
p452
sg17
g18
((lp453
tp454
Rp455
sg22
I31
sg23
g18
((lp456
tp457
Rp458
sg27
S'ros_snapshot'
p459
sg29
I0
sbsS'/rrbot/position_controller/gains/joint1/i_clamp_min'
p460
g0
(g9
g2
Ntp461
Rp462
(dp463
g13
S'/rrbot/position_controller/gains/joint1/i_clamp_min'
p464
sg15
S'float'
p465
sg17
g18
((lp466
tp467
Rp468
sg22
F-0.0
sg23
g18
((lp469
tp470
Rp471
sg27
S'ros_snapshot'
p472
sg29
I0
sbsS'/rosversion'
p473
g0
(g9
g2
Ntp474
Rp475
(dp476
g13
S'/rosversion'
p477
sg15
S'str'
p478
sg17
g18
((lp479
tp480
Rp481
sg22
S'1.14.9'
p482
sg23
g18
((lp483
tp484
Rp485
sg27
S'ros_snapshot'
p486
sg29
I0
sbsS'/gazebo/sor_pgs_iters'
p487
g0
(g9
g2
Ntp488
Rp489
(dp490
g13
S'/gazebo/sor_pgs_iters'
p491
sg15
S'int'
p492
sg17
g18
((lp493
tp494
Rp495
sg22
I50
sg23
g18
((lp496
tp497
Rp498
sg27
S'ros_snapshot'
p499
sg29
I0
sbsS'/rrbot/position_controller/gains/joint2/i_clamp_min'
p500
g0
(g9
g2
Ntp501
Rp502
(dp503
g13
S'/rrbot/position_controller/gains/joint2/i_clamp_min'
p504
sg15
S'float'
p505
sg17
g18
((lp506
tp507
Rp508
sg22
F-0.0
sg23
g18
((lp509
tp510
Rp511
sg27
S'ros_snapshot'
p512
sg29
I0
sbsS'/gazebo/sor_pgs_rms_error_tol'
p513
g0
(g9
g2
Ntp514
Rp515
(dp516
g13
S'/gazebo/sor_pgs_rms_error_tol'
p517
sg15
S'float'
p518
sg17
g18
((lp519
tp520
Rp521
sg22
F0.0
sg23
g18
((lp522
tp523
Rp524
sg27
S'ros_snapshot'
p525
sg29
I0
sbsS'/gazebo/sor_pgs_precon_iters'
p526
g0
(g9
g2
Ntp527
Rp528
(dp529
g13
S'/gazebo/sor_pgs_precon_iters'
p530
sg15
S'int'
p531
sg17
g18
((lp532
tp533
Rp534
sg22
I0
sg23
g18
((lp535
tp536
Rp537
sg27
S'ros_snapshot'
p538
sg29
I0
sbsS'/rrbot/position_controller/gains/joint1/i_clamp_max'
p539
g0
(g9
g2
Ntp540
Rp541
(dp542
g13
S'/rrbot/position_controller/gains/joint1/i_clamp_max'
p543
sg15
S'float'
p544
sg17
g18
((lp545
tp546
Rp547
sg22
F0.0
sg23
g18
((lp548
tp549
Rp550
sg27
S'ros_snapshot'
p551
sg29
I0
sbsS'/robot_description'
p552
g0
(g9
g2
Ntp553
Rp554
(dp555
g13
S'/robot_description'
p556
sg15
S'str'
p557
sg17
g18
((lp558
g290
atp559
Rp560
sg22
S'<?xml version="1.0" encoding="utf-8"?>\n<!-- =================================================================================== -->\n<!-- |    This document was autogenerated by xacro from /home/cpsc472_9/robotics-s20/src/cnu-robotics-gazebo_ros_demos/rrbot_description/urdf/rrbot.xacro | -->\n<!-- |    EDITING THIS FILE BY HAND IS NOT RECOMMENDED                                 | -->\n<!-- =================================================================================== -->\n<!-- Revolute-Revolute Manipulator -->\n<robot name="rrbot">\n  <!-- Space btw top of beam and the each joint -->\n  <!-- ros_control plugin -->\n  <gazebo>\n    <plugin filename="libgazebo_ros_control.so" name="gazebo_ros_control">\n      <robotNamespace>/rrbot</robotNamespace>\n      <robotSimType>gazebo_ros_control/DefaultRobotHWSim</robotSimType>\n    </plugin>\n  </gazebo>\n  <!-- Link1 -->\n  <gazebo reference="link1">\n    <material>Gazebo/Orange</material>\n  </gazebo>\n  <!-- Link2 -->\n  <gazebo reference="link2">\n    <mu1>0.2</mu1>\n    <mu2>0.2</mu2>\n    <material>Gazebo/Black</material>\n  </gazebo>\n  <!-- Link3 -->\n  <gazebo reference="link3">\n    <mu1>0.2</mu1>\n    <mu2>0.2</mu2>\n    <material>Gazebo/Orange</material>\n  </gazebo>\n  <!-- camera_link -->\n  <gazebo reference="camera_link">\n    <mu1>0.2</mu1>\n    <mu2>0.2</mu2>\n    <material>Gazebo/Red</material>\n  </gazebo>\n  <!-- hokuyo -->\n  <gazebo reference="hokuyo_link">\n    <sensor name="head_hokuyo_sensor" type="ray">\n      <pose>0 0 0 0 0 0</pose>\n      <visualize>false</visualize>\n      <update_rate>40</update_rate>\n      <ray>\n        <scan>\n          <horizontal>\n            <samples>720</samples>\n            <resolution>1</resolution>\n            <min_angle>-1.570796</min_angle>\n            <max_angle>1.570796</max_angle>\n          </horizontal>\n        </scan>\n        <range>\n          <min>0.10</min>\n          <max>30.0</max>\n          <resolution>0.01</resolution>\n        </range>\n        <noise>\n          <type>gaussian</type>\n          <!-- Noise parameters based on published spec for Hokuyo laser\n               achieving "+-30mm" accuracy at range < 10m.  A mean of 0.0m and\n               stddev of 0.01m will put 99.7% of samples within 0.03m of the true\n               reading. -->\n          <mean>0.0</mean>\n          <stddev>0.01</stddev>\n        </noise>\n      </ray>\n      <plugin filename="libgazebo_ros_laser.so" name="gazebo_ros_head_hokuyo_controller">\n        <topicName>/rrbot/laser/scan</topicName>\n        <frameName>hokuyo_link</frameName>\n      </plugin>\n    </sensor>\n  </gazebo>\n  <!-- camera -->\n  <gazebo reference="camera_link">\n    <sensor name="camera1" type="camera">\n      <update_rate>30.0</update_rate>\n      <camera name="head">\n        <horizontal_fov>1.3962634</horizontal_fov>\n        <image>\n          <width>800</width>\n          <height>800</height>\n          <format>R8G8B8</format>\n        </image>\n        <clip>\n          <near>0.02</near>\n          <far>300</far>\n        </clip>\n        <noise>\n          <type>gaussian</type>\n          <!-- Noise is sampled independently per pixel on each frame.\n               That pixel\'s noise value is added to each of its color\n               channels, which at that point lie in the range [0,1]. -->\n          <mean>0.0</mean>\n          <stddev>0.007</stddev>\n        </noise>\n      </camera>\n      <plugin filename="libgazebo_ros_camera.so" name="camera_controller">\n        <alwaysOn>true</alwaysOn>\n        <updateRate>0.0</updateRate>\n        <cameraName>rrbot/camera1</cameraName>\n        <imageTopicName>image_raw</imageTopicName>\n        <cameraInfoTopicName>camera_info</cameraInfoTopicName>\n        <frameName>camera_link_optical</frameName>\n        <!-- setting hackBaseline to anything but 0.0 will cause a misalignment\n            between the gazebo sensor image and the frame it is supposed to\n            be attached to -->\n        <hackBaseline>0.0</hackBaseline>\n        <distortionK1>0.0</distortionK1>\n        <distortionK2>0.0</distortionK2>\n        <distortionK3>0.0</distortionK3>\n        <distortionT1>0.0</distortionT1>\n        <distortionT2>0.0</distortionT2>\n        <CxPrime>0</CxPrime>\n        <Cx>0.0</Cx>\n        <Cy>0.0</Cy>\n        <focalLength>0.0</focalLength>\n      </plugin>\n    </sensor>\n  </gazebo>\n  <material name="black">\n    <color rgba="0.0 0.0 0.0 1.0"/>\n  </material>\n  <material name="blue">\n    <color rgba="0.0 0.0 0.8 1.0"/>\n  </material>\n  <material name="green">\n    <color rgba="0.0 0.8 0.0 1.0"/>\n  </material>\n  <material name="grey">\n    <color rgba="0.2 0.2 0.2 1.0"/>\n  </material>\n  <material name="orange">\n    <color rgba="1.0 0.423529411765 0.0392156862745 1.0"/>\n  </material>\n  <material name="brown">\n    <color rgba="0.870588235294 0.811764705882 0.764705882353 1.0"/>\n  </material>\n  <material name="red">\n    <color rgba="0.8 0.0 0.0 1.0"/>\n  </material>\n  <material name="white">\n    <color rgba="1.0 1.0 1.0 1.0"/>\n  </material>\n  <!-- Used for fixing robot to Gazebo \'base_link\' -->\n  <link name="world"/>\n  <joint name="fixed" type="fixed">\n    <parent link="world"/>\n    <child link="link1"/>\n  </joint>\n  <!-- Base Link -->\n  <link name="link1">\n    <collision>\n      <origin rpy="0 0 0" xyz="0 0 1.0"/>\n      <geometry>\n        <box size="0.1 0.1 2"/>\n      </geometry>\n    </collision>\n    <visual>\n      <origin rpy="0 0 0" xyz="0 0 1.0"/>\n      <geometry>\n        <box size="0.1 0.1 2"/>\n      </geometry>\n      <material name="orange"/>\n    </visual>\n    <inertial>\n      <origin rpy="0 0 0" xyz="0 0 1.0"/>\n      <mass value="25"/>\n      <inertia ixx="8.35416666667" ixy="0.0" ixz="0.0" iyy="8.35416666667" iyz="0.0" izz="0.0416666666667"/>\n    </inertial>\n  </link>\n  <joint name="joint1" type="continuous">\n    <parent link="link1"/>\n    <child link="link2"/>\n    <origin rpy="0 0 0" xyz="0 0.1 1.95"/>\n    <axis xyz="0 1 0"/>\n    <dynamics damping="0.7"/>\n  </joint>\n  <!-- Middle Link -->\n  <link name="link2">\n    <collision>\n      <origin rpy="0 0 0" xyz="0 0 0.45"/>\n      <geometry>\n        <box size="0.1 0.1 1"/>\n      </geometry>\n    </collision>\n    <visual>\n      <origin rpy="0 0 0" xyz="0 0 0.45"/>\n      <geometry>\n        <box size="0.1 0.1 1"/>\n      </geometry>\n      <material name="black"/>\n    </visual>\n    <inertial>\n      <origin rpy="0 0 0" xyz="0 0 0.45"/>\n      <mass value="25"/>\n      <inertia ixx="2.10416666667" ixy="0.0" ixz="0.0" iyy="2.10416666667" iyz="0.0" izz="0.0416666666667"/>\n    </inertial>\n  </link>\n  <joint name="joint2" type="continuous">\n    <parent link="link2"/>\n    <child link="link3"/>\n    <origin rpy="0 0 0" xyz="0 0.1 0.9"/>\n    <axis xyz="0 1 0"/>\n    <dynamics damping="0.7"/>\n  </joint>\n  <!-- Top Link -->\n  <link name="link3">\n    <collision>\n      <origin rpy="0 0 0" xyz="0 0 0.45"/>\n      <geometry>\n        <box size="0.1 0.1 1"/>\n      </geometry>\n    </collision>\n    <visual>\n      <origin rpy="0 0 0" xyz="0 0 0.45"/>\n      <geometry>\n        <box size="0.1 0.1 1"/>\n      </geometry>\n      <material name="orange"/>\n    </visual>\n    <inertial>\n      <origin rpy="0 0 0" xyz="0 0 0.45"/>\n      <mass value="25"/>\n      <inertia ixx="2.10416666667" ixy="0.0" ixz="0.0" iyy="2.10416666667" iyz="0.0" izz="0.0416666666667"/>\n    </inertial>\n  </link>\n  <joint name="hokuyo_joint" type="fixed">\n    <axis xyz="0 1 0"/>\n    <origin rpy="0 0 0" xyz="0 0 0.975"/>\n    <parent link="link3"/>\n    <child link="hokuyo_link"/>\n  </joint>\n  <!-- Hokuyo Laser -->\n  <link name="hokuyo_link">\n    <collision>\n      <origin rpy="0 0 0" xyz="0 0 0"/>\n      <geometry>\n        <box size="0.1 0.1 0.1"/>\n      </geometry>\n    </collision>\n    <visual>\n      <origin rpy="0 0 0" xyz="0 0 0"/>\n      <geometry>\n        <mesh filename="package://rrbot_description/meshes/hokuyo.dae"/>\n      </geometry>\n    </visual>\n    <inertial>\n      <mass value="1e-5"/>\n      <origin rpy="0 0 0" xyz="0 0 0"/>\n      <inertia ixx="1e-6" ixy="0" ixz="0" iyy="1e-6" iyz="0" izz="1e-6"/>\n    </inertial>\n  </link>\n  <joint name="camera_joint" type="fixed">\n    <axis xyz="0 1 0"/>\n    <origin rpy="0 0 0" xyz="0.05 0 0.9"/>\n    <parent link="link3"/>\n    <child link="camera_link"/>\n  </joint>\n  <!-- Camera -->\n  <link name="camera_link">\n    <collision>\n      <origin rpy="0 0 0" xyz="0 0 0"/>\n      <geometry>\n        <box size="0.05 0.05 0.05"/>\n      </geometry>\n    </collision>\n    <visual>\n      <origin rpy="0 0 0" xyz="0 0 0"/>\n      <geometry>\n        <box size="0.05 0.05 0.05"/>\n      </geometry>\n      <material name="red"/>\n    </visual>\n    <inertial>\n      <mass value="1e-5"/>\n      <origin rpy="0 0 0" xyz="0 0 0"/>\n      <inertia ixx="1e-6" ixy="0" ixz="0" iyy="1e-6" iyz="0" izz="1e-6"/>\n    </inertial>\n  </link>\n  <!-- generate an optical frame http://www.ros.org/reps/rep-0103.html#suffix-frames\n      so that ros and opencv can operate on the camera frame correctly -->\n  <joint name="camera_optical_joint" type="fixed">\n    <!-- these values have to be these values otherwise the gazebo camera image\n        won\'t be aligned properly with the frame it is supposedly originating from -->\n    <origin rpy="-1.57079632679 0 -1.57079632679" xyz="0 0 0"/>\n    <parent link="camera_link"/>\n    <child link="camera_link_optical"/>\n  </joint>\n  <link name="camera_link_optical">\n  </link>\n  <transmission name="tran1">\n    <type>transmission_interface/SimpleTransmission</type>\n    <joint name="joint1">\n      <hardwareInterface>hardware_interface/EffortJointInterface</hardwareInterface>\n    </joint>\n    <actuator name="motor1">\n      <hardwareInterface>hardware_interface/EffortJointInterface</hardwareInterface>\n      <mechanicalReduction>1</mechanicalReduction>\n    </actuator>\n  </transmission>\n  <transmission name="tran2">\n    <type>transmission_interface/SimpleTransmission</type>\n    <joint name="joint2">\n      <hardwareInterface>hardware_interface/EffortJointInterface</hardwareInterface>\n    </joint>\n    <actuator name="motor2">\n      <hardwareInterface>hardware_interface/EffortJointInterface</hardwareInterface>\n      <mechanicalReduction>1</mechanicalReduction>\n    </actuator>\n  </transmission>\n</robot>'
p561
sg23
g18
((lp562
tp563
Rp564
sg27
S'haros_chris_model_merger, ros_snapshot'
p565
sg29
I1
sg30
S'/home/conner/TurtleBot_Devel/src/gazebo_ros_demos/rrbot_gazebo/launch/rrbot_world.launch'
p566
sbsS'/gazebo/gravity_z'
p567
g0
(g9
g2
Ntp568
Rp569
(dp570
g13
S'/gazebo/gravity_z'
p571
sg15
S'float'
p572
sg17
g18
((lp573
tp574
Rp575
sg22
F-9.8
sg23
g18
((lp576
tp577
Rp578
sg27
S'ros_snapshot'
p579
sg29
I0
sbsS'/roslaunch/uris/host_XX.XX.XX_216__38729'
p580
g0
(g9
g2
Ntp581
Rp582
(dp583
g13
S'/roslaunch/uris/host_XX.XX.XX_216__38729'
p584
sg15
S'str'
p585
sg17
g18
((lp586
tp587
Rp588
sg22
S'http://XX.XX.XX.216:38729/'
p589
sg23
g18
((lp590
tp591
Rp592
sg27
S'ros_snapshot'
p593
sg29
I0
sbsS'/gazebo/gravity_x'
p594
g0
(g9
g2
Ntp595
Rp596
(dp597
g13
S'/gazebo/gravity_x'
p598
sg15
S'float'
p599
sg17
g18
((lp600
tp601
Rp602
sg22
F0.0
sg23
g18
((lp603
tp604
Rp605
sg27
S'ros_snapshot'
p606
sg29
I0
sbsS'/gazebo/gravity_y'
p607
g0
(g9
g2
Ntp608
Rp609
(dp610
g13
S'/gazebo/gravity_y'
p611
sg15
S'float'
p612
sg17
g18
((lp613
tp614
Rp615
sg22
F0.0
sg23
g18
((lp616
tp617
Rp618
sg27
S'ros_snapshot'
p619
sg29
I0
sbsS'/rrbot/position_controller/gains/joint2/p'
p620
g0
(g9
g2
Ntp621
Rp622
(dp623
g13
S'/rrbot/position_controller/gains/joint2/p'
p624
sg15
S'float'
p625
sg17
g18
((lp626
tp627
Rp628
sg22
F375.0
sg23
g18
((lp629
tp630
Rp631
sg27
S'haros_chris_model_merger, ros_snapshot'
p632
sg29
I1
sg30
g31
sbsS'/rrbot/position_controller/gains/joint1/antiwindup'
p633
g0
(g9
g2
Ntp634
Rp635
(dp636
g13
S'/rrbot/position_controller/gains/joint1/antiwindup'
p637
sg15
S'bool'
p638
sg17
g18
((lp639
tp640
Rp641
sg22
I00
sg23
g18
((lp642
tp643
Rp644
sg27
S'ros_snapshot'
p645
sg29
I0
sbsS'/rrbot/position_controller/gains/joint2/i'
p646
g0
(g9
g2
Ntp647
Rp648
(dp649
g13
S'/rrbot/position_controller/gains/joint2/i'
p650
sg15
S'float'
p651
sg17
g18
((lp652
tp653
Rp654
sg22
F0.01
sg23
g18
((lp655
tp656
Rp657
sg27
S'haros_chris_model_merger, ros_snapshot'
p658
sg29
I1
sg30
g31
sbsS'/rrbot/position_controller/joints'
p659
g0
(g9
g2
Ntp660
Rp661
(dp662
g13
S'/rrbot/position_controller/joints'
p663
sg15
S'list'
p664
sg17
g18
((lp665
tp666
Rp667
sg22
(lp668
S'joint1'
p669
aS'joint2'
p670
asg23
g18
((lp671
tp672
Rp673
sg27
S'haros_chris_model_merger, ros_snapshot'
p674
sg29
I1
sg30
g31
sbsS'/rrbot/camera1/image_raw/theora/optimize_for'
p675
g0
(g9
g2
Ntp676
Rp677
(dp678
g13
S'/rrbot/camera1/image_raw/theora/optimize_for'
p679
sg15
S'int'
p680
sg17
g18
((lp681
tp682
Rp683
sg22
I1
sg23
g18
((lp684
tp685
Rp686
sg27
S'ros_snapshot'
p687
sg29
I0
sbsS'/gazebo/auto_disable_bodies'
p688
g0
(g9
g2
Ntp689
Rp690
(dp691
g13
S'/gazebo/auto_disable_bodies'
p692
sg15
S'bool'
p693
sg17
g18
((lp694
tp695
Rp696
sg22
I00
sg23
g18
((lp697
tp698
Rp699
sg27
S'ros_snapshot'
p700
sg29
I0
sbsS'/rrbot/position_controller/gains/joint1/p'
p701
g0
(g9
g2
Ntp702
Rp703
(dp704
g13
S'/rrbot/position_controller/gains/joint1/p'
p705
sg15
S'float'
p706
sg17
g18
((lp707
tp708
Rp709
sg22
F750.0
sg23
g18
((lp710
tp711
Rp712
sg27
S'haros_chris_model_merger, ros_snapshot'
p713
sg29
I1
sg30
g31
sbsS'/rrbot/position_controller/gains/joint2/d'
p714
g0
(g9
g2
Ntp715
Rp716
(dp717
g13
S'/rrbot/position_controller/gains/joint2/d'
p718
sg15
S'float'
p719
sg17
g18
((lp720
tp721
Rp722
sg22
F10.0
sg23
g18
((lp723
tp724
Rp725
sg27
S'haros_chris_model_merger, ros_snapshot'
p726
sg29
I1
sg30
g31
sbsS'/rrbot/camera1/imager_rate'
p727
g0
(g9
g2
Ntp728
Rp729
(dp730
g13
S'/rrbot/camera1/imager_rate'
p731
sg15
S'float'
p732
sg17
g18
((lp733
tp734
Rp735
sg22
F2.0
sg23
g18
((lp736
tp737
Rp738
sg27
S'ros_snapshot'
p739
sg29
I0
sbsS'/rrbot/position_controller/gains/joint2/i_clamp_max'
p740
g0
(g9
g2
Ntp741
Rp742
(dp743
g13
S'/rrbot/position_controller/gains/joint2/i_clamp_max'
p744
sg15
S'float'
p745
sg17
g18
((lp746
tp747
Rp748
sg22
F0.0
sg23
g18
((lp749
tp750
Rp751
sg27
S'ros_snapshot'
p752
sg29
I0
sbssb.