ccopy_reg
_reconstructor
p0
(cchris_ros_modeling.deployments.node
NodeBank
p1
c__builtin__
object
p2
Ntp3
Rp4
(dp5
S'names_to_metamodels'
p6
(dp7
S'/rrbot_rqt'
p8
g0
(cchris_ros_modeling.deployments.node
Node
p9
g2
Ntp10
Rp11
(dp12
S'action_clients'
p13
(dp14
sS'cmdline'
p15
(lp16
S'python'
p17
aS'/opt/ros/melodic/lib/rqt_gui/rqt_gui'
p18
aS'--perspective-file'
p19
aS'/home/robotics/robotics/src/ros_probe/chris_rrbot_modeling/launch/rrbot_rqt_action.perspective'
p20
aS'__name:=rrbot_rqt'
p21
aS'__log:=/home/robotics/.ros/log/c274d628-ea66-11ea-b2b8-f8b156abe24c/rrbot_rqt-1.log'
p22
asS'cpu_percent'
p23
F0.0
sS'provided_services'
p24
(dp25
sS'source'
p26
S'haros_chris_model_merger, ros_snapshot'
p27
sS'version'
p28
I1
sS'read_parameter_names'
p29
(dp30
sS'executable_file'
p31
S'/usr/bin/python2.7'
p32
sS'node'
p33
S'rqt_gui/rqt_gui'
p34
sS'set_parameter_names'
p35
(dp36
sS'action_servers'
p37
(dp38
sS'memory_info'
p39
S'pmem(rss=220246016, vms=1720557568, shared=93163520, text=3174400, lib=0, data=234250240, dirty=0)'
p40
sS'executable_name'
p41
S'python'
p42
sS'num_threads'
p43
I13
sS'published_topic_names'
p44
(dp45
S'/rrbot/joint1_position_controller/command'
p46
S'command'
p47
ssS'name'
p48
S'/rrbot_rqt'
p49
sS'uri'
p50
S'http://XX.XX.XX.157:40695/'
p51
sS'memory_percent'
p52
F2.6570887407649724
sS'subscribed_topic_names'
p53
(dp54
S'/clock'
p55
S'clock'
p56
sS'/rrbot/position_controller/state'
p57
S'state'
p58
ssS'launch_file'
p59
S'/home/conner/TurtleBot_Devel/src/ros_probe/chris_rrbot_modeling/launch/rrbot_rqt_action.launch'
p60
sbsS'/robot_state_publisher'
p61
g0
(g9
g2
Ntp62
Rp63
(dp64
g13
(dp65
sg15
(lp66
S'/opt/ros/melodic/lib/robot_state_publisher/robot_state_publisher'
p67
aS'/joint_states:=/rrbot/joint_states'
p68
aS'__name:=robot_state_publisher'
p69
aS'__log:=/home/robotics/.ros/log/c274d628-ea66-11ea-b2b8-f8b156abe24c/robot_state_publisher-2.log'
p70
asg23
F0.0
sg24
(dp71
sg26
S'haros_chris_model_merger, ros_snapshot'
p72
sg28
I1
sg29
(dp73
S'/use_tf_static'
p74
S'use_tf_static'
p75
sS'/publish_frequency'
p76
S'publish_frequency'
p77
sS'/robot_description'
p78
S'robot_description'
p79
sS'/ignore_timestamp'
p80
S'ignore_timestamp'
p81
sS'/tf_prefix'
p82
S'tf_prefix'
p83
ssg31
S'/opt/ros/melodic/lib/robot_state_publisher/robot_state_publisher'
p84
sg33
S'robot_state_publisher/robot_state_publisher'
p85
sg35
(dp86
sg37
(dp87
sg39
S'pmem(rss=16158720, vms=473698304, shared=14409728, text=90112, lib=0, data=44425216, dirty=0)'
p88
sg41
S'robot_state_publisher'
p89
sg43
I6
sg44
(dp90
S'/tf_static'
p91
S'tf_static'
p92
sS'/tf'
p93
S'tf'
p94
ssg48
S'/robot_state_publisher'
p95
sg50
S'http://XX.XX.XX.157:35149/'
p96
sg52
F0.1949417917151962
sg53
(dp97
S'/clock'
p98
S'clock'
p99
sS'/rrbot/joint_states'
p100
S'joint_states'
p101
ssg59
S'/home/conner/TurtleBot_Devel/src/ros_probe/chris_rrbot_modeling/launch/rrbot_control_action.launch'
p102
sbsS'/gazebo'
p103
g0
(g9
g2
Ntp104
Rp105
(dp106
g13
(dp107
sg15
S'UNKNOWN CMDLINE FOR /gazebo'
p108
sg23
S'UNKNOWN CPU_PERCENT FOR /gazebo'
p109
sg24
(dp110
S'/gazebo/apply_joint_effort'
p111
NsS'/rrbot/position_controller/gains/joint2/set_parameters'
p112
NsS'/gazebo/get_physics_properties'
p113
NsS'/gazebo/set_link_state'
p114
NsS'/rrbot/camera1/set_parameters'
p115
NsS'/gazebo/set_joint_properties'
p116
NsS'/gazebo/reset_world'
p117
NsS'/gazebo/set_model_configuration'
p118
NsS'/gazebo/get_world_properties'
p119
NsS'/gazebo/delete_light'
p120
NsS'/gazebo/set_parameters'
p121
NsS'/rrbot/position_controller/gains/joint1/set_parameters'
p122
NsS'/gazebo/spawn_sdf_model'
p123
NsS'/gazebo/unpause_physics'
p124
NsS'/rrbot/camera1/image_raw/theora/set_parameters'
p125
NsS'/gazebo/get_joint_properties'
p126
NsS'/gazebo/get_light_properties'
p127
NsS'/gazebo/clear_body_wrenches'
p128
NsS'/gazebo/pause_physics'
p129
NsS'/rrbot/controller_manager/unload_controller'
p130
NsS'/rrbot/camera1/set_camera_info'
p131
NsS'/gazebo/set_physics_properties'
p132
NsS'/gazebo/get_model_state'
p133
NsS'/rrbot/controller_manager/switch_controller'
p134
NsS'/rrbot/controller_manager/list_controller_types'
p135
NsS'/rrbot/controller_manager/list_controllers'
p136
NsS'/gazebo/reset_simulation'
p137
NsS'/rrbot/camera1/image_raw/compressedDepth/set_parameters'
p138
NsS'/gazebo/delete_model'
p139
NsS'/rrbot/controller_manager/reload_controller_libraries'
p140
NsS'/gazebo/spawn_urdf_model'
p141
NsS'/rrbot/controller_manager/load_controller'
p142
NsS'/gazebo/set_link_properties'
p143
NsS'/gazebo/set_model_state'
p144
NsS'/gazebo/apply_body_wrench'
p145
NsS'/rrbot/camera1/image_raw/compressed/set_parameters'
p146
NsS'/gazebo/get_link_state'
p147
NsS'/rrbot/position_controller/query_state'
p148
NsS'/gazebo/get_model_properties'
p149
NsS'/gazebo/set_light_properties'
p150
NsS'/gazebo/clear_joint_forces'
p151
NsS'/gazebo/get_link_properties'
p152
Nssg26
S'haros_chris_model_merger, ros_snapshot'
p153
sg28
I1
sg29
(dp154
sg31
S'UNKNOWN EXE FOR /gazebo'
p155
sg33
S'gazebo_ros/debug'
p156
sg35
(dp157
sg37
(dp158
S'/rrbot/position_controller/follow_joint_trajectory'
p159
Nssg39
S'UNKNOWN MEMORY_INFO FOR /gazebo'
p160
sg41
S'UNKNOWN NAME FOR /gazebo'
p161
sg43
S'UNKNOWN NUM_THREADS FOR /gazebo'
p162
sg44
(dp163
S'/rrbot/camera1/camera_info'
p164
NsS'/rrbot/laser/scan'
p165
NsS'/rrbot/camera1/image_raw/theora/parameter_descriptions'
p166
NsS'/rrbot/position_controller/gains/joint2/parameter_descriptions'
p167
NsS'/rrbot/position_controller/gains/joint1/parameter_updates'
p168
NsS'/rrbot/camera1/image_raw/compressed'
p169
NsS'/rrbot/camera1/image_raw'
p170
NsS'/rrbot/position_controller/state'
p171
NsS'/rrbot/camera1/image_raw/compressed/parameter_updates'
p172
NsS'/rrbot/camera1/parameter_updates'
p173
NsS'/rrbot/camera1/image_raw/compressedDepth/parameter_descriptions'
p174
NsS'/rrbot/camera1/image_raw/theora'
p175
NsS'/rrbot/joint_states'
p176
NsS'/rrbot/position_controller/gains/joint1/parameter_descriptions'
p177
NsS'/rrbot/camera1/image_raw/theora/parameter_updates'
p178
NsS'/gazebo/link_states'
p179
NsS'/rrbot/camera1/image_raw/compressed/parameter_descriptions'
p180
NsS'/rrbot/position_controller/gains/joint2/parameter_updates'
p181
NsS'/gazebo/model_states'
p182
NsS'/clock'
p183
NsS'/gazebo/parameter_descriptions'
p184
NsS'/rrbot/camera1/parameter_descriptions'
p185
NsS'/rrbot/camera1/image_raw/compressedDepth'
p186
NsS'/rrbot/camera1/image_raw/compressedDepth/parameter_updates'
p187
NsS'/gazebo/parameter_updates'
p188
Nssg48
S'/gazebo'
p189
sg50
S'http://XX.XX.XX.216:42599/'
p190
sg52
S'UNKNOWN MEMORY_PERCENT FOR /gazebo'
p191
sg53
(dp192
S'/clock'
p193
NsS'/rrbot/position_controller/command'
p194
NsS'/gazebo/set_model_state'
p195
NsS'/gazebo/set_link_state'
p196
Nssg59
S'/opt/ros/kinetic/share/gazebo_ros/launch/empty_world.launch'
p197
sbsS'/rrbot_control_action_19653_1598754066562'
p198
g0
(g9
g2
Ntp199
Rp200
(dp201
g13
(dp202
S'/rrbot/position_controller/follow_joint_trajectory'
p203
S'follow_joint_trajectory'
p204
ssg15
(lp205
S'python'
p206
aS'/home/robotics/robotics/src/ros_probe/chris_rrbot_modeling/bin/rrbot_action_demo'
p207
asg23
F0.0
sg24
(dp208
sg26
S'ros_snapshot'
p209
sg28
I0
sg29
(dp210
sg31
S'/usr/bin/python2.7'
p211
sg33
S'chris_rrbot_modeling/rrbot_action_demo'
p212
sg35
(dp213
sg37
(dp214
sg39
S'pmem(rss=56938496, vms=927731712, shared=7876608, text=3174400, lib=0, data=142774272, dirty=0)'
p215
sg41
S'python'
p216
sg43
I11
sg44
(dp217
sg48
S'/rrbot_control_action_19653_1598754066562'
p218
sg50
S'http://XX.XX.XX.157:36277/'
p219
sg52
F0.6869165644189968
sg53
(dp220
S'/clock'
p221
S'clock'
p222
ssbsS'/rrbot/controller_spawner'
p223
g0
(g9
g2
Ntp224
Rp225
(dp226
g13
(dp227
sg15
(lp228
S'python2'
p229
aS'/opt/ros/melodic/lib/controller_manager/spawner'
p230
aS'joint_state_controller'
p231
aS'position_controller'
p232
aS'__name:=controller_spawner'
p233
aS'__log:=/home/robotics/.ros/log/c274d628-ea66-11ea-b2b8-f8b156abe24c/rrbot-controller_spawner-1.log'
p234
asS'client_services'
p235
(dp236
S'/rrbot/controller_manager/switch_controller'
p237
S'switch_controller'
p238
sS'/rrbot/controller_manager/load_controller'
p239
S'load_controller'
p240
sS'/rrbot/controller_manager/unload_controller'
p241
S'unload_controller'
p242
ssg23
F0.0
sg24
(dp243
sg26
S'haros_chris_model_merger, ros_snapshot'
p244
sg28
I1
sg29
(dp245
sg31
S'/usr/bin/python2.7'
p246
sg33
S'controller_manager/spawner'
p247
sg35
(dp248
sg37
(dp249
sg39
S'pmem(rss=55947264, vms=549236736, shared=8138752, text=3174400, lib=0, data=99127296, dirty=0)'
p250
sg41
S'python2'
p251
sg43
I6
sg44
(dp252
sg48
S'/rrbot/controller_spawner'
p253
sg50
S'http://XX.XX.XX.157:44127/'
p254
sg52
F0.6749581579310178
sg53
(dp255
S'/clock'
p256
S'clock'
p257
ssg59
g102
sbsS'/gazebo_gui'
p258
g0
(g9
g2
Ntp259
Rp260
(dp261
g13
(dp262
sg15
S'UNKNOWN CMDLINE FOR /gazebo_gui'
p263
sg23
S'UNKNOWN CPU_PERCENT FOR /gazebo_gui'
p264
sg24
(dp265
sg26
S'ros_snapshot'
p266
sg28
I0
sg29
(dp267
sg31
S'UNKNOWN EXE FOR /gazebo_gui'
p268
sg33
Nsg35
(dp269
sg37
(dp270
sg39
S'UNKNOWN MEMORY_INFO FOR /gazebo_gui'
p271
sg41
S'UNKNOWN NAME FOR /gazebo_gui'
p272
sg43
S'UNKNOWN NUM_THREADS FOR /gazebo_gui'
p273
sg44
(dp274
sg48
S'/gazebo_gui'
p275
sg50
S'http://XX.XX.XX.216:35103/'
p276
sg52
S'UNKNOWN MEMORY_PERCENT FOR /gazebo_gui'
p277
sg53
(dp278
S'/clock'
p279
NssbsS'/rrbot_action_demo'
p280
g0
(g9
g2
Ntp281
Rp282
(dp283
g33
S'chris_rrbot_modeling/rrbot_action_demo'
p284
sg43
Nsg44
(dp285
sg53
(dp286
sg48
g280
sg35
(dp287
sg15
(lp288
sg37
(dp289
sg23
Nsg52
Nsg50
Nsg13
(dp290
sg29
(dp291
sg26
S'haros_chris_model_merger'
p292
sg39
Nsg28
I0
sg24
(dp293
sg59
S'/home/conner/TurtleBot_Devel/src/ros_probe/chris_rrbot_modeling/launch/rrbot_action_demo.launch'
p294
sg41
Nsg31
Nsg235
(dp295
sbssb.