ccopy_reg
_reconstructor
p0
(cchris_ros_modeling.deployments.topic
TopicBank
p1
c__builtin__
object
p2
Ntp3
Rp4
(dp5
S'names_to_metamodels'
p6
(dp7
S'/rrbot/camera1/camera_info'
p8
g0
(cchris_ros_modeling.deployments.topic
Topic
p9
g2
Ntp10
Rp11
(dp12
S'publisher_node_names'
p13
c__builtin__
set
p14
((lp15
S'/gazebo'
p16
atp17
Rp18
sS'construct_type'
p19
S'sensor_msgs/CameraInfo'
p20
sS'name'
p21
S'/rrbot/camera1/camera_info'
p22
sS'subscriber_node_names'
p23
g14
((lp24
tp25
Rp26
sS'source'
p27
S'ros_snapshot'
p28
sS'version'
p29
I0
sbsS'/gazebo/set_link_state'
p30
g0
(g9
g2
Ntp31
Rp32
(dp33
g13
g14
((lp34
tp35
Rp36
sg19
S'gazebo_msgs/LinkState'
p37
sg21
S'/gazebo/set_link_state'
p38
sg23
g14
((lp39
S'/gazebo'
p40
atp41
Rp42
sg27
S'ros_snapshot'
p43
sg29
I0
sbsS'/rrbot/position_controller/command'
p44
g0
(g9
g2
Ntp45
Rp46
(dp47
g13
g14
((lp48
tp49
Rp50
sg19
S'trajectory_msgs/JointTrajectory'
p51
sg21
S'/rrbot/position_controller/command'
p52
sg23
g14
((lp53
S'/gazebo'
p54
atp55
Rp56
sg27
S'ros_snapshot'
p57
sg29
I0
sbsS'/rrbot/camera1/image_raw/theora/parameter_descriptions'
p58
g0
(g9
g2
Ntp59
Rp60
(dp61
g13
g14
((lp62
S'/gazebo'
p63
atp64
Rp65
sg19
S'dynamic_reconfigure/ConfigDescription'
p66
sg21
S'/rrbot/camera1/image_raw/theora/parameter_descriptions'
p67
sg23
g14
((lp68
tp69
Rp70
sg27
S'ros_snapshot'
p71
sg29
I0
sbsS'/rrbot/position_controller/gains/joint2/parameter_descriptions'
p72
g0
(g9
g2
Ntp73
Rp74
(dp75
g13
g14
((lp76
S'/gazebo'
p77
atp78
Rp79
sg19
S'dynamic_reconfigure/ConfigDescription'
p80
sg21
S'/rrbot/position_controller/gains/joint2/parameter_descriptions'
p81
sg23
g14
((lp82
tp83
Rp84
sg27
S'ros_snapshot'
p85
sg29
I0
sbsS'/tf'
p86
g0
(g9
g2
Ntp87
Rp88
(dp89
g13
g14
((lp90
S'/robot_state_publisher'
p91
atp92
Rp93
sg19
S'tf2_msgs/TFMessage'
p94
sg21
S'/tf'
p95
sg23
g14
((lp96
tp97
Rp98
sg27
S'ros_snapshot'
p99
sg29
I0
sbsS'/rrbot/camera1/image_raw/compressed'
p100
g0
(g9
g2
Ntp101
Rp102
(dp103
g13
g14
((lp104
S'/gazebo'
p105
atp106
Rp107
sg19
S'sensor_msgs/CompressedImage'
p108
sg21
S'/rrbot/camera1/image_raw/compressed'
p109
sg23
g14
((lp110
tp111
Rp112
sg27
S'ros_snapshot'
p113
sg29
I0
sbsS'/rrbot/camera1/image_raw'
p114
g0
(g9
g2
Ntp115
Rp116
(dp117
g13
g14
((lp118
S'/gazebo'
p119
atp120
Rp121
sg19
S'sensor_msgs/Image'
p122
sg21
S'/rrbot/camera1/image_raw'
p123
sg23
g14
((lp124
tp125
Rp126
sg27
S'ros_snapshot'
p127
sg29
I0
sbsS'/rrbot/joint1_position_controller/command'
p128
g0
(g9
g2
Ntp129
Rp130
(dp131
g13
g14
((lp132
S'/rrbot_rqt'
p133
atp134
Rp135
sg19
S'std_msgs/Float64'
p136
sg21
S'/rrbot/joint1_position_controller/command'
p137
sg23
g14
((lp138
tp139
Rp140
sg27
S'ros_snapshot'
p141
sg29
I0
sbsS'/rrbot/position_controller/gains/joint1/parameter_updates'
p142
g0
(g9
g2
Ntp143
Rp144
(dp145
g13
g14
((lp146
S'/gazebo'
p147
atp148
Rp149
sg19
S'dynamic_reconfigure/Config'
p150
sg21
S'/rrbot/position_controller/gains/joint1/parameter_updates'
p151
sg23
g14
((lp152
tp153
Rp154
sg27
S'ros_snapshot'
p155
sg29
I0
sbsS'/rrbot/camera1/image_raw/compressed/parameter_updates'
p156
g0
(g9
g2
Ntp157
Rp158
(dp159
g13
g14
((lp160
S'/gazebo'
p161
atp162
Rp163
sg19
S'dynamic_reconfigure/Config'
p164
sg21
S'/rrbot/camera1/image_raw/compressed/parameter_updates'
p165
sg23
g14
((lp166
tp167
Rp168
sg27
S'ros_snapshot'
p169
sg29
I0
sbsS'/rrbot/position_controller/state'
p170
g0
(g9
g2
Ntp171
Rp172
(dp173
g13
g14
((lp174
S'/gazebo'
p175
atp176
Rp177
sg19
S'control_msgs/JointTrajectoryControllerState'
p178
sg21
S'/rrbot/position_controller/state'
p179
sg23
g14
((lp180
S'/rrbot_rqt'
p181
atp182
Rp183
sg27
S'ros_snapshot'
p184
sg29
I0
sbsS'/rrbot/camera1/image_raw/compressedDepth/parameter_descriptions'
p185
g0
(g9
g2
Ntp186
Rp187
(dp188
g13
g14
((lp189
S'/gazebo'
p190
atp191
Rp192
sg19
S'dynamic_reconfigure/ConfigDescription'
p193
sg21
S'/rrbot/camera1/image_raw/compressedDepth/parameter_descriptions'
p194
sg23
g14
((lp195
tp196
Rp197
sg27
S'ros_snapshot'
p198
sg29
I0
sbsS'/rrbot/camera1/parameter_updates'
p199
g0
(g9
g2
Ntp200
Rp201
(dp202
g13
g14
((lp203
S'/gazebo'
p204
atp205
Rp206
sg19
S'dynamic_reconfigure/Config'
p207
sg21
S'/rrbot/camera1/parameter_updates'
p208
sg23
g14
((lp209
tp210
Rp211
sg27
S'ros_snapshot'
p212
sg29
I0
sbsS'/rrbot/camera1/image_raw/theora'
p213
g0
(g9
g2
Ntp214
Rp215
(dp216
g13
g14
((lp217
S'/gazebo'
p218
atp219
Rp220
sg19
S'theora_image_transport/Packet'
p221
sg21
S'/rrbot/camera1/image_raw/theora'
p222
sg23
g14
((lp223
tp224
Rp225
sg27
S'ros_snapshot'
p226
sg29
I0
sbsS'/gazebo/model_states'
p227
g0
(g9
g2
Ntp228
Rp229
(dp230
g13
g14
((lp231
S'/gazebo'
p232
atp233
Rp234
sg19
S'gazebo_msgs/ModelStates'
p235
sg21
S'/gazebo/model_states'
p236
sg23
g14
((lp237
tp238
Rp239
sg27
S'ros_snapshot'
p240
sg29
I0
sbsS'/gazebo/set_model_state'
p241
g0
(g9
g2
Ntp242
Rp243
(dp244
g13
g14
((lp245
tp246
Rp247
sg19
S'gazebo_msgs/ModelState'
p248
sg21
S'/gazebo/set_model_state'
p249
sg23
g14
((lp250
S'/gazebo'
p251
atp252
Rp253
sg27
S'ros_snapshot'
p254
sg29
I0
sbsS'/rrbot/position_controller/gains/joint1/parameter_descriptions'
p255
g0
(g9
g2
Ntp256
Rp257
(dp258
g13
g14
((lp259
S'/gazebo'
p260
atp261
Rp262
sg19
S'dynamic_reconfigure/ConfigDescription'
p263
sg21
S'/rrbot/position_controller/gains/joint1/parameter_descriptions'
p264
sg23
g14
((lp265
tp266
Rp267
sg27
S'ros_snapshot'
p268
sg29
I0
sbsS'/rrbot/camera1/image_raw/theora/parameter_updates'
p269
g0
(g9
g2
Ntp270
Rp271
(dp272
g13
g14
((lp273
S'/gazebo'
p274
atp275
Rp276
sg19
S'dynamic_reconfigure/Config'
p277
sg21
S'/rrbot/camera1/image_raw/theora/parameter_updates'
p278
sg23
g14
((lp279
tp280
Rp281
sg27
S'ros_snapshot'
p282
sg29
I0
sbsS'/gazebo/link_states'
p283
g0
(g9
g2
Ntp284
Rp285
(dp286
g13
g14
((lp287
S'/gazebo'
p288
atp289
Rp290
sg19
S'gazebo_msgs/LinkStates'
p291
sg21
S'/gazebo/link_states'
p292
sg23
g14
((lp293
tp294
Rp295
sg27
S'ros_snapshot'
p296
sg29
I0
sbsS'/rrbot/laser/scan'
p297
g0
(g9
g2
Ntp298
Rp299
(dp300
g13
g14
((lp301
S'/gazebo'
p302
atp303
Rp304
sg19
S'sensor_msgs/LaserScan'
p305
sg21
S'/rrbot/laser/scan'
p306
sg23
g14
((lp307
tp308
Rp309
sg27
S'ros_snapshot'
p310
sg29
I0
sbsS'/rrbot/camera1/image_raw/compressed/parameter_descriptions'
p311
g0
(g9
g2
Ntp312
Rp313
(dp314
g13
g14
((lp315
S'/gazebo'
p316
atp317
Rp318
sg19
S'dynamic_reconfigure/ConfigDescription'
p319
sg21
S'/rrbot/camera1/image_raw/compressed/parameter_descriptions'
p320
sg23
g14
((lp321
tp322
Rp323
sg27
S'ros_snapshot'
p324
sg29
I0
sbsS'/rrbot/position_controller/gains/joint2/parameter_updates'
p325
g0
(g9
g2
Ntp326
Rp327
(dp328
g13
g14
((lp329
S'/gazebo'
p330
atp331
Rp332
sg19
S'dynamic_reconfigure/Config'
p333
sg21
S'/rrbot/position_controller/gains/joint2/parameter_updates'
p334
sg23
g14
((lp335
tp336
Rp337
sg27
S'ros_snapshot'
p338
sg29
I0
sbsS'/tf_static'
p339
g0
(g9
g2
Ntp340
Rp341
(dp342
g13
g14
((lp343
S'/robot_state_publisher'
p344
atp345
Rp346
sg19
S'tf2_msgs/TFMessage'
p347
sg21
S'/tf_static'
p348
sg23
g14
((lp349
tp350
Rp351
sg27
S'ros_snapshot'
p352
sg29
I0
sbsS'/clock'
p353
g0
(g9
g2
Ntp354
Rp355
(dp356
g13
g14
((lp357
S'/gazebo'
p358
atp359
Rp360
sg19
S'rosgraph_msgs/Clock'
p361
sg21
S'/clock'
p362
sg23
g14
((lp363
S'/rrbot_rqt'
p364
aS'/robot_state_publisher'
p365
aS'/gazebo'
p366
aS'/rrbot_control_action_19653_1598754066562'
p367
aS'/rrbot/controller_spawner'
p368
aS'/gazebo_gui'
p369
atp370
Rp371
sg27
S'ros_snapshot'
p372
sg29
I0
sbsS'/gazebo/parameter_descriptions'
p373
g0
(g9
g2
Ntp374
Rp375
(dp376
g13
g14
((lp377
S'/gazebo'
p378
atp379
Rp380
sg19
S'dynamic_reconfigure/ConfigDescription'
p381
sg21
S'/gazebo/parameter_descriptions'
p382
sg23
g14
((lp383
tp384
Rp385
sg27
S'ros_snapshot'
p386
sg29
I0
sbsS'/rrbot/camera1/parameter_descriptions'
p387
g0
(g9
g2
Ntp388
Rp389
(dp390
g13
g14
((lp391
S'/gazebo'
p392
atp393
Rp394
sg19
S'dynamic_reconfigure/ConfigDescription'
p395
sg21
S'/rrbot/camera1/parameter_descriptions'
p396
sg23
g14
((lp397
tp398
Rp399
sg27
S'ros_snapshot'
p400
sg29
I0
sbsS'/rrbot/joint_states'
p401
g0
(g9
g2
Ntp402
Rp403
(dp404
g13
g14
((lp405
S'/gazebo'
p406
atp407
Rp408
sg19
S'sensor_msgs/JointState'
p409
sg21
S'/rrbot/joint_states'
p410
sg23
g14
((lp411
S'/robot_state_publisher'
p412
atp413
Rp414
sg27
S'ros_snapshot'
p415
sg29
I0
sbsS'/rrbot/camera1/image_raw/compressedDepth'
p416
g0
(g9
g2
Ntp417
Rp418
(dp419
g13
g14
((lp420
S'/gazebo'
p421
atp422
Rp423
sg19
S'sensor_msgs/CompressedImage'
p424
sg21
S'/rrbot/camera1/image_raw/compressedDepth'
p425
sg23
g14
((lp426
tp427
Rp428
sg27
S'ros_snapshot'
p429
sg29
I0
sbsS'/rrbot/camera1/image_raw/compressedDepth/parameter_updates'
p430
g0
(g9
g2
Ntp431
Rp432
(dp433
g13
g14
((lp434
S'/gazebo'
p435
atp436
Rp437
sg19
S'dynamic_reconfigure/Config'
p438
sg21
S'/rrbot/camera1/image_raw/compressedDepth/parameter_updates'
p439
sg23
g14
((lp440
tp441
Rp442
sg27
S'ros_snapshot'
p443
sg29
I0
sbsS'/gazebo/parameter_updates'
p444
g0
(g9
g2
Ntp445
Rp446
(dp447
g13
g14
((lp448
S'/gazebo'
p449
atp450
Rp451
sg19
S'dynamic_reconfigure/Config'
p452
sg21
S'/gazebo/parameter_updates'
p453
sg23
g14
((lp454
tp455
Rp456
sg27
S'ros_snapshot'
p457
sg29
I0
sbssb.