ccopy_reg
_reconstructor
p0
(cchris_ros_modeling.deployments.service
ServiceBank
p1
c__builtin__
object
p2
Ntp3
Rp4
(dp5
S'names_to_metamodels'
p6
(dp7
S'/gazebo/apply_joint_effort'
p8
g0
(cchris_ros_modeling.deployments.service
Service
p9
g2
Ntp10
Rp11
(dp12
S'construct_type'
p13
S'gazebo_msgs/ApplyJointEffort'
p14
sS'name'
p15
S'/gazebo/apply_joint_effort'
p16
sS'source'
p17
S'ros_snapshot'
p18
sS'service_provider_node_names'
p19
c__builtin__
set
p20
((lp21
S'/gazebo'
p22
atp23
Rp24
sS'uri'
p25
S'rosrpc://XX.XX.XX.216:36343'
p26
sS'headers'
p27
(dp28
S'request_type'
p29
S'gazebo_msgs/ApplyJointEffortRequest'
p30
sS'md5sum'
p31
S'c0039811b8cc919490b3cff748cdf46b'
p32
sS'type'
p33
S'gazebo_msgs/ApplyJointEffort'
p34
sS'response_type'
p35
S'gazebo_msgs/ApplyJointEffortResponse'
p36
sS'callerid'
p37
S'/gazebo'
p38
ssS'version'
p39
I0
sbsS'/rrbot/position_controller/gains/joint2/set_parameters'
p40
g0
(g9
g2
Ntp41
Rp42
(dp43
g13
S'dynamic_reconfigure/Reconfigure'
p44
sg15
S'/rrbot/position_controller/gains/joint2/set_parameters'
p45
sg17
S'ros_snapshot'
p46
sg19
g20
((lp47
S'/gazebo'
p48
atp49
Rp50
sg25
S'rosrpc://XX.XX.XX.216:36343'
p51
sg27
(dp52
S'request_type'
p53
S'dynamic_reconfigure/ReconfigureRequest'
p54
sS'md5sum'
p55
S'bb125d226a21982a4a98760418dc2672'
p56
sS'type'
p57
S'dynamic_reconfigure/Reconfigure'
p58
sS'response_type'
p59
S'dynamic_reconfigure/ReconfigureResponse'
p60
sS'callerid'
p61
S'/gazebo'
p62
ssg39
I0
sbsS'/gazebo/get_physics_properties'
p63
g0
(g9
g2
Ntp64
Rp65
(dp66
g13
S'gazebo_msgs/GetPhysicsProperties'
p67
sg15
S'/gazebo/get_physics_properties'
p68
sg17
S'ros_snapshot'
p69
sg19
g20
((lp70
S'/gazebo'
p71
atp72
Rp73
sg25
S'rosrpc://XX.XX.XX.216:36343'
p74
sg27
(dp75
S'request_type'
p76
S'gazebo_msgs/GetPhysicsPropertiesRequest'
p77
sS'md5sum'
p78
S'575a5e74786981b7df2e3afc567693a6'
p79
sS'type'
p80
S'gazebo_msgs/GetPhysicsProperties'
p81
sS'response_type'
p82
S'gazebo_msgs/GetPhysicsPropertiesResponse'
p83
sS'callerid'
p84
S'/gazebo'
p85
ssg39
I0
sbsS'/gazebo/set_link_state'
p86
g0
(g9
g2
Ntp87
Rp88
(dp89
g13
S'gazebo_msgs/SetLinkState'
p90
sg15
S'/gazebo/set_link_state'
p91
sg17
S'ros_snapshot'
p92
sg19
g20
((lp93
S'/gazebo'
p94
atp95
Rp96
sg25
S'rosrpc://XX.XX.XX.216:36343'
p97
sg27
(dp98
S'request_type'
p99
S'gazebo_msgs/SetLinkStateRequest'
p100
sS'md5sum'
p101
S'8a5146eb66ae4d26b0860b08f3f271be'
p102
sS'type'
p103
S'gazebo_msgs/SetLinkState'
p104
sS'response_type'
p105
S'gazebo_msgs/SetLinkStateResponse'
p106
sS'callerid'
p107
S'/gazebo'
p108
ssg39
I0
sbsS'/rrbot/camera1/set_parameters'
p109
g0
(g9
g2
Ntp110
Rp111
(dp112
g13
S'dynamic_reconfigure/Reconfigure'
p113
sg15
S'/rrbot/camera1/set_parameters'
p114
sg17
S'ros_snapshot'
p115
sg19
g20
((lp116
S'/gazebo'
p117
atp118
Rp119
sg25
S'rosrpc://XX.XX.XX.216:36343'
p120
sg27
(dp121
S'request_type'
p122
S'dynamic_reconfigure/ReconfigureRequest'
p123
sS'md5sum'
p124
S'bb125d226a21982a4a98760418dc2672'
p125
sS'type'
p126
S'dynamic_reconfigure/Reconfigure'
p127
sS'response_type'
p128
S'dynamic_reconfigure/ReconfigureResponse'
p129
sS'callerid'
p130
S'/gazebo'
p131
ssg39
I0
sbsS'/gazebo/set_joint_properties'
p132
g0
(g9
g2
Ntp133
Rp134
(dp135
g13
S'gazebo_msgs/SetJointProperties'
p136
sg15
S'/gazebo/set_joint_properties'
p137
sg17
S'ros_snapshot'
p138
sg19
g20
((lp139
S'/gazebo'
p140
atp141
Rp142
sg25
S'rosrpc://XX.XX.XX.216:36343'
p143
sg27
(dp144
S'request_type'
p145
S'gazebo_msgs/SetJointPropertiesRequest'
p146
sS'md5sum'
p147
S'15a76e921b1410c698d82782ea5fa370'
p148
sS'type'
p149
S'gazebo_msgs/SetJointProperties'
p150
sS'response_type'
p151
S'gazebo_msgs/SetJointPropertiesResponse'
p152
sS'callerid'
p153
S'/gazebo'
p154
ssg39
I0
sbsS'/gazebo/reset_world'
p155
g0
(g9
g2
Ntp156
Rp157
(dp158
g13
S'std_srvs/Empty'
p159
sg15
S'/gazebo/reset_world'
p160
sg17
S'ros_snapshot'
p161
sg19
g20
((lp162
S'/gazebo'
p163
atp164
Rp165
sg25
S'rosrpc://XX.XX.XX.216:36343'
p166
sg27
(dp167
S'request_type'
p168
S'std_srvs/EmptyRequest'
p169
sS'md5sum'
p170
S'd41d8cd98f00b204e9800998ecf8427e'
p171
sS'type'
p172
S'std_srvs/Empty'
p173
sS'response_type'
p174
S'std_srvs/EmptyResponse'
p175
sS'callerid'
p176
S'/gazebo'
p177
ssg39
I0
sbsS'/gazebo/set_model_configuration'
p178
g0
(g9
g2
Ntp179
Rp180
(dp181
g13
S'gazebo_msgs/SetModelConfiguration'
p182
sg15
S'/gazebo/set_model_configuration'
p183
sg17
S'ros_snapshot'
p184
sg19
g20
((lp185
S'/gazebo'
p186
atp187
Rp188
sg25
S'rosrpc://XX.XX.XX.216:36343'
p189
sg27
(dp190
S'request_type'
p191
S'gazebo_msgs/SetModelConfigurationRequest'
p192
sS'md5sum'
p193
S'10e3139d3b669c40afc057d38956fff7'
p194
sS'type'
p195
S'gazebo_msgs/SetModelConfiguration'
p196
sS'response_type'
p197
S'gazebo_msgs/SetModelConfigurationResponse'
p198
sS'callerid'
p199
S'/gazebo'
p200
ssg39
I0
sbsS'/gazebo/get_world_properties'
p201
g0
(g9
g2
Ntp202
Rp203
(dp204
g13
S'gazebo_msgs/GetWorldProperties'
p205
sg15
S'/gazebo/get_world_properties'
p206
sg17
S'ros_snapshot'
p207
sg19
g20
((lp208
S'/gazebo'
p209
atp210
Rp211
sg25
S'rosrpc://XX.XX.XX.216:36343'
p212
sg27
(dp213
S'request_type'
p214
S'gazebo_msgs/GetWorldPropertiesRequest'
p215
sS'md5sum'
p216
S'36bb0f2eccf4d8be971410c22818ba3f'
p217
sS'type'
p218
S'gazebo_msgs/GetWorldProperties'
p219
sS'response_type'
p220
S'gazebo_msgs/GetWorldPropertiesResponse'
p221
sS'callerid'
p222
S'/gazebo'
p223
ssg39
I0
sbsS'/gazebo/delete_light'
p224
g0
(g9
g2
Ntp225
Rp226
(dp227
g13
S'gazebo_msgs/DeleteLight'
p228
sg15
S'/gazebo/delete_light'
p229
sg17
S'ros_snapshot'
p230
sg19
g20
((lp231
S'/gazebo'
p232
atp233
Rp234
sg25
S'rosrpc://XX.XX.XX.216:36343'
p235
sg27
(dp236
S'request_type'
p237
S'gazebo_msgs/DeleteLightRequest'
p238
sS'md5sum'
p239
S'ae11ea8100d536d5b92c2b5917abf912'
p240
sS'type'
p241
S'gazebo_msgs/DeleteLight'
p242
sS'response_type'
p243
S'gazebo_msgs/DeleteLightResponse'
p244
sS'callerid'
p245
S'/gazebo'
p246
ssg39
I0
sbsS'/gazebo/set_parameters'
p247
g0
(g9
g2
Ntp248
Rp249
(dp250
g13
S'dynamic_reconfigure/Reconfigure'
p251
sg15
S'/gazebo/set_parameters'
p252
sg17
S'ros_snapshot'
p253
sg19
g20
((lp254
S'/gazebo'
p255
atp256
Rp257
sg25
S'rosrpc://XX.XX.XX.216:36343'
p258
sg27
(dp259
S'request_type'
p260
S'dynamic_reconfigure/ReconfigureRequest'
p261
sS'md5sum'
p262
S'bb125d226a21982a4a98760418dc2672'
p263
sS'type'
p264
S'dynamic_reconfigure/Reconfigure'
p265
sS'response_type'
p266
S'dynamic_reconfigure/ReconfigureResponse'
p267
sS'callerid'
p268
S'/gazebo'
p269
ssg39
I0
sbsS'/rrbot/position_controller/gains/joint1/set_parameters'
p270
g0
(g9
g2
Ntp271
Rp272
(dp273
g13
S'dynamic_reconfigure/Reconfigure'
p274
sg15
S'/rrbot/position_controller/gains/joint1/set_parameters'
p275
sg17
S'ros_snapshot'
p276
sg19
g20
((lp277
S'/gazebo'
p278
atp279
Rp280
sg25
S'rosrpc://XX.XX.XX.216:36343'
p281
sg27
(dp282
S'request_type'
p283
S'dynamic_reconfigure/ReconfigureRequest'
p284
sS'md5sum'
p285
S'bb125d226a21982a4a98760418dc2672'
p286
sS'type'
p287
S'dynamic_reconfigure/Reconfigure'
p288
sS'response_type'
p289
S'dynamic_reconfigure/ReconfigureResponse'
p290
sS'callerid'
p291
S'/gazebo'
p292
ssg39
I0
sbsS'/gazebo/spawn_sdf_model'
p293
g0
(g9
g2
Ntp294
Rp295
(dp296
g13
S'gazebo_msgs/SpawnModel'
p297
sg15
S'/gazebo/spawn_sdf_model'
p298
sg17
S'ros_snapshot'
p299
sg19
g20
((lp300
S'/gazebo'
p301
atp302
Rp303
sg25
S'rosrpc://XX.XX.XX.216:36343'
p304
sg27
(dp305
S'request_type'
p306
S'gazebo_msgs/SpawnModelRequest'
p307
sS'md5sum'
p308
S'9ed9c82c96abe1a00c3e8cdaeee24413'
p309
sS'type'
p310
S'gazebo_msgs/SpawnModel'
p311
sS'response_type'
p312
S'gazebo_msgs/SpawnModelResponse'
p313
sS'callerid'
p314
S'/gazebo'
p315
ssg39
I0
sbsS'/gazebo/unpause_physics'
p316
g0
(g9
g2
Ntp317
Rp318
(dp319
g13
S'std_srvs/Empty'
p320
sg15
S'/gazebo/unpause_physics'
p321
sg17
S'ros_snapshot'
p322
sg19
g20
((lp323
S'/gazebo'
p324
atp325
Rp326
sg25
S'rosrpc://XX.XX.XX.216:36343'
p327
sg27
(dp328
S'request_type'
p329
S'std_srvs/EmptyRequest'
p330
sS'md5sum'
p331
S'd41d8cd98f00b204e9800998ecf8427e'
p332
sS'type'
p333
S'std_srvs/Empty'
p334
sS'response_type'
p335
S'std_srvs/EmptyResponse'
p336
sS'callerid'
p337
S'/gazebo'
p338
ssg39
I0
sbsS'/rrbot/camera1/image_raw/theora/set_parameters'
p339
g0
(g9
g2
Ntp340
Rp341
(dp342
g13
S'dynamic_reconfigure/Reconfigure'
p343
sg15
S'/rrbot/camera1/image_raw/theora/set_parameters'
p344
sg17
S'ros_snapshot'
p345
sg19
g20
((lp346
S'/gazebo'
p347
atp348
Rp349
sg25
S'rosrpc://XX.XX.XX.216:36343'
p350
sg27
(dp351
S'request_type'
p352
S'dynamic_reconfigure/ReconfigureRequest'
p353
sS'md5sum'
p354
S'bb125d226a21982a4a98760418dc2672'
p355
sS'type'
p356
S'dynamic_reconfigure/Reconfigure'
p357
sS'response_type'
p358
S'dynamic_reconfigure/ReconfigureResponse'
p359
sS'callerid'
p360
S'/gazebo'
p361
ssg39
I0
sbsS'/gazebo/get_joint_properties'
p362
g0
(g9
g2
Ntp363
Rp364
(dp365
g13
S'gazebo_msgs/GetJointProperties'
p366
sg15
S'/gazebo/get_joint_properties'
p367
sg17
S'ros_snapshot'
p368
sg19
g20
((lp369
S'/gazebo'
p370
atp371
Rp372
sg25
S'rosrpc://XX.XX.XX.216:36343'
p373
sg27
(dp374
S'request_type'
p375
S'gazebo_msgs/GetJointPropertiesRequest'
p376
sS'md5sum'
p377
S'7b30be900f50aa21efec4a0ec92d91c9'
p378
sS'type'
p379
S'gazebo_msgs/GetJointProperties'
p380
sS'response_type'
p381
S'gazebo_msgs/GetJointPropertiesResponse'
p382
sS'callerid'
p383
S'/gazebo'
p384
ssg39
I0
sbsS'/gazebo/get_light_properties'
p385
g0
(g9
g2
Ntp386
Rp387
(dp388
g13
S'gazebo_msgs/GetLightProperties'
p389
sg15
S'/gazebo/get_light_properties'
p390
sg17
S'ros_snapshot'
p391
sg19
g20
((lp392
S'/gazebo'
p393
atp394
Rp395
sg25
S'rosrpc://XX.XX.XX.216:36343'
p396
sg27
(dp397
S'request_type'
p398
S'gazebo_msgs/GetLightPropertiesRequest'
p399
sS'md5sum'
p400
S'df2cef87e13e2e6990e81e8aaa454c19'
p401
sS'type'
p402
S'gazebo_msgs/GetLightProperties'
p403
sS'response_type'
p404
S'gazebo_msgs/GetLightPropertiesResponse'
p405
sS'callerid'
p406
S'/gazebo'
p407
ssg39
I0
sbsS'/gazebo/clear_body_wrenches'
p408
g0
(g9
g2
Ntp409
Rp410
(dp411
g13
S'gazebo_msgs/BodyRequest'
p412
sg15
S'/gazebo/clear_body_wrenches'
p413
sg17
S'ros_snapshot'
p414
sg19
g20
((lp415
S'/gazebo'
p416
atp417
Rp418
sg25
S'rosrpc://XX.XX.XX.216:36343'
p419
sg27
(dp420
S'request_type'
p421
S'gazebo_msgs/BodyRequestRequest'
p422
sS'md5sum'
p423
S'5eade9afe7f232d78005bd0cafeab755'
p424
sS'type'
p425
S'gazebo_msgs/BodyRequest'
p426
sS'response_type'
p427
S'gazebo_msgs/BodyRequestResponse'
p428
sS'callerid'
p429
S'/gazebo'
p430
ssg39
I0
sbsS'/gazebo/pause_physics'
p431
g0
(g9
g2
Ntp432
Rp433
(dp434
g13
S'std_srvs/Empty'
p435
sg15
S'/gazebo/pause_physics'
p436
sg17
S'ros_snapshot'
p437
sg19
g20
((lp438
S'/gazebo'
p439
atp440
Rp441
sg25
S'rosrpc://XX.XX.XX.216:36343'
p442
sg27
(dp443
S'request_type'
p444
S'std_srvs/EmptyRequest'
p445
sS'md5sum'
p446
S'd41d8cd98f00b204e9800998ecf8427e'
p447
sS'type'
p448
S'std_srvs/Empty'
p449
sS'response_type'
p450
S'std_srvs/EmptyResponse'
p451
sS'callerid'
p452
S'/gazebo'
p453
ssg39
I0
sbsS'/rrbot/controller_manager/unload_controller'
p454
g0
(g9
g2
Ntp455
Rp456
(dp457
g13
S'controller_manager_msgs/UnloadController'
p458
sg15
S'/rrbot/controller_manager/unload_controller'
p459
sg17
S'haros_chris_model_merger, ros_snapshot'
p460
sg19
g20
((lp461
S'/gazebo'
p462
atp463
Rp464
sg25
S'rosrpc://XX.XX.XX.216:36343'
p465
sg27
(dp466
S'request_type'
p467
S'controller_manager_msgs/UnloadControllerRequest'
p468
sS'md5sum'
p469
S'647e5c54b8d6468952d8d31f1efe96c0'
p470
sS'type'
p471
S'controller_manager_msgs/UnloadController'
p472
sS'response_type'
p473
S'controller_manager_msgs/UnloadControllerResponse'
p474
sS'callerid'
p475
S'/gazebo'
p476
ssg39
I1
sS'service_client_node_names'
p477
g20
((lp478
S'/rrbot/controller_spawner'
p479
atp480
Rp481
sbsS'/rrbot/camera1/set_camera_info'
p482
g0
(g9
g2
Ntp483
Rp484
(dp485
g13
S'sensor_msgs/SetCameraInfo'
p486
sg15
S'/rrbot/camera1/set_camera_info'
p487
sg17
S'ros_snapshot'
p488
sg19
g20
((lp489
S'/gazebo'
p490
atp491
Rp492
sg25
S'rosrpc://XX.XX.XX.216:36343'
p493
sg27
(dp494
S'request_type'
p495
S'sensor_msgs/SetCameraInfoRequest'
p496
sS'md5sum'
p497
S'bef1df590ed75ed1f393692395e15482'
p498
sS'type'
p499
S'sensor_msgs/SetCameraInfo'
p500
sS'response_type'
p501
S'sensor_msgs/SetCameraInfoResponse'
p502
sS'callerid'
p503
S'/gazebo'
p504
ssg39
I0
sbsS'/gazebo/set_physics_properties'
p505
g0
(g9
g2
Ntp506
Rp507
(dp508
g13
S'gazebo_msgs/SetPhysicsProperties'
p509
sg15
S'/gazebo/set_physics_properties'
p510
sg17
S'ros_snapshot'
p511
sg19
g20
((lp512
S'/gazebo'
p513
atp514
Rp515
sg25
S'rosrpc://XX.XX.XX.216:36343'
p516
sg27
(dp517
S'request_type'
p518
S'gazebo_msgs/SetPhysicsPropertiesRequest'
p519
sS'md5sum'
p520
S'97e2057080558ce4730434b5fae75c91'
p521
sS'type'
p522
S'gazebo_msgs/SetPhysicsProperties'
p523
sS'response_type'
p524
S'gazebo_msgs/SetPhysicsPropertiesResponse'
p525
sS'callerid'
p526
S'/gazebo'
p527
ssg39
I0
sbsS'/gazebo/get_model_state'
p528
g0
(g9
g2
Ntp529
Rp530
(dp531
g13
S'gazebo_msgs/GetModelState'
p532
sg15
S'/gazebo/get_model_state'
p533
sg17
S'ros_snapshot'
p534
sg19
g20
((lp535
S'/gazebo'
p536
atp537
Rp538
sg25
S'rosrpc://XX.XX.XX.216:36343'
p539
sg27
(dp540
S'request_type'
p541
S'gazebo_msgs/GetModelStateRequest'
p542
sS'md5sum'
p543
S'4c515e936d3319c9610c559c60bfc3d4'
p544
sS'type'
p545
S'gazebo_msgs/GetModelState'
p546
sS'response_type'
p547
S'gazebo_msgs/GetModelStateResponse'
p548
sS'callerid'
p549
S'/gazebo'
p550
ssg39
I0
sbsS'/rrbot/controller_manager/switch_controller'
p551
g0
(g9
g2
Ntp552
Rp553
(dp554
g13
S'controller_manager_msgs/SwitchController'
p555
sg15
S'/rrbot/controller_manager/switch_controller'
p556
sg17
S'haros_chris_model_merger, ros_snapshot'
p557
sg19
g20
((lp558
S'/gazebo'
p559
atp560
Rp561
sg25
S'rosrpc://XX.XX.XX.216:36343'
p562
sg27
(dp563
S'request_type'
p564
S'controller_manager_msgs/SwitchControllerRequest'
p565
sS'md5sum'
p566
S'b29a7abc673b2c54c14b54e50f8d06a5'
p567
sS'type'
p568
S'controller_manager_msgs/SwitchController'
p569
sS'response_type'
p570
S'controller_manager_msgs/SwitchControllerResponse'
p571
sS'callerid'
p572
S'/gazebo'
p573
ssg39
I1
sg477
g20
((lp574
g479
atp575
Rp576
sbsS'/rrbot/controller_manager/list_controller_types'
p577
g0
(g9
g2
Ntp578
Rp579
(dp580
g13
S'controller_manager_msgs/ListControllerTypes'
p581
sg15
S'/rrbot/controller_manager/list_controller_types'
p582
sg17
S'ros_snapshot'
p583
sg19
g20
((lp584
S'/gazebo'
p585
atp586
Rp587
sg25
S'rosrpc://XX.XX.XX.216:36343'
p588
sg27
(dp589
S'request_type'
p590
S'controller_manager_msgs/ListControllerTypesRequest'
p591
sS'md5sum'
p592
S'c1d4cd11aefa9f97ba4aeb5b33987f4e'
p593
sS'type'
p594
S'controller_manager_msgs/ListControllerTypes'
p595
sS'response_type'
p596
S'controller_manager_msgs/ListControllerTypesResponse'
p597
sS'callerid'
p598
S'/gazebo'
p599
ssg39
I0
sbsS'/rrbot/controller_manager/list_controllers'
p600
g0
(g9
g2
Ntp601
Rp602
(dp603
g13
S'controller_manager_msgs/ListControllers'
p604
sg15
S'/rrbot/controller_manager/list_controllers'
p605
sg17
S'ros_snapshot'
p606
sg19
g20
((lp607
S'/gazebo'
p608
atp609
Rp610
sg25
S'rosrpc://XX.XX.XX.216:36343'
p611
sg27
(dp612
S'request_type'
p613
S'controller_manager_msgs/ListControllersRequest'
p614
sS'md5sum'
p615
S'1341feb2e63fa791f855565d0da950d8'
p616
sS'type'
p617
S'controller_manager_msgs/ListControllers'
p618
sS'response_type'
p619
S'controller_manager_msgs/ListControllersResponse'
p620
sS'callerid'
p621
S'/gazebo'
p622
ssg39
I0
sbsS'/gazebo/reset_simulation'
p623
g0
(g9
g2
Ntp624
Rp625
(dp626
g13
S'std_srvs/Empty'
p627
sg15
S'/gazebo/reset_simulation'
p628
sg17
S'ros_snapshot'
p629
sg19
g20
((lp630
S'/gazebo'
p631
atp632
Rp633
sg25
S'rosrpc://XX.XX.XX.216:36343'
p634
sg27
(dp635
S'request_type'
p636
S'std_srvs/EmptyRequest'
p637
sS'md5sum'
p638
S'd41d8cd98f00b204e9800998ecf8427e'
p639
sS'type'
p640
S'std_srvs/Empty'
p641
sS'response_type'
p642
S'std_srvs/EmptyResponse'
p643
sS'callerid'
p644
S'/gazebo'
p645
ssg39
I0
sbsS'/rrbot/camera1/image_raw/compressedDepth/set_parameters'
p646
g0
(g9
g2
Ntp647
Rp648
(dp649
g13
S'dynamic_reconfigure/Reconfigure'
p650
sg15
S'/rrbot/camera1/image_raw/compressedDepth/set_parameters'
p651
sg17
S'ros_snapshot'
p652
sg19
g20
((lp653
S'/gazebo'
p654
atp655
Rp656
sg25
S'rosrpc://XX.XX.XX.216:36343'
p657
sg27
(dp658
S'request_type'
p659
S'dynamic_reconfigure/ReconfigureRequest'
p660
sS'md5sum'
p661
S'bb125d226a21982a4a98760418dc2672'
p662
sS'type'
p663
S'dynamic_reconfigure/Reconfigure'
p664
sS'response_type'
p665
S'dynamic_reconfigure/ReconfigureResponse'
p666
sS'callerid'
p667
S'/gazebo'
p668
ssg39
I0
sbsS'/gazebo/delete_model'
p669
g0
(g9
g2
Ntp670
Rp671
(dp672
g13
S'gazebo_msgs/DeleteModel'
p673
sg15
S'/gazebo/delete_model'
p674
sg17
S'ros_snapshot'
p675
sg19
g20
((lp676
S'/gazebo'
p677
atp678
Rp679
sg25
S'rosrpc://XX.XX.XX.216:36343'
p680
sg27
(dp681
S'request_type'
p682
S'gazebo_msgs/DeleteModelRequest'
p683
sS'md5sum'
p684
S'9ce56b4e9e54616de25d796dc972a262'
p685
sS'type'
p686
S'gazebo_msgs/DeleteModel'
p687
sS'response_type'
p688
S'gazebo_msgs/DeleteModelResponse'
p689
sS'callerid'
p690
S'/gazebo'
p691
ssg39
I0
sbsS'/rrbot/controller_manager/reload_controller_libraries'
p692
g0
(g9
g2
Ntp693
Rp694
(dp695
g13
S'controller_manager_msgs/ReloadControllerLibraries'
p696
sg15
S'/rrbot/controller_manager/reload_controller_libraries'
p697
sg17
S'ros_snapshot'
p698
sg19
g20
((lp699
S'/gazebo'
p700
atp701
Rp702
sg25
S'rosrpc://XX.XX.XX.216:36343'
p703
sg27
(dp704
S'request_type'
p705
S'controller_manager_msgs/ReloadControllerLibrariesRequest'
p706
sS'md5sum'
p707
S'40e8c411fd1797d2e2c486018f846040'
p708
sS'type'
p709
S'controller_manager_msgs/ReloadControllerLibraries'
p710
sS'response_type'
p711
S'controller_manager_msgs/ReloadControllerLibrariesResponse'
p712
sS'callerid'
p713
S'/gazebo'
p714
ssg39
I0
sbsS'/gazebo/spawn_urdf_model'
p715
g0
(g9
g2
Ntp716
Rp717
(dp718
g13
S'gazebo_msgs/SpawnModel'
p719
sg15
S'/gazebo/spawn_urdf_model'
p720
sg17
S'ros_snapshot'
p721
sg19
g20
((lp722
S'/gazebo'
p723
atp724
Rp725
sg25
S'rosrpc://XX.XX.XX.216:36343'
p726
sg27
(dp727
S'request_type'
p728
S'gazebo_msgs/SpawnModelRequest'
p729
sS'md5sum'
p730
S'9ed9c82c96abe1a00c3e8cdaeee24413'
p731
sS'type'
p732
S'gazebo_msgs/SpawnModel'
p733
sS'response_type'
p734
S'gazebo_msgs/SpawnModelResponse'
p735
sS'callerid'
p736
S'/gazebo'
p737
ssg39
I0
sbsS'/rrbot/controller_manager/load_controller'
p738
g0
(g9
g2
Ntp739
Rp740
(dp741
g13
S'controller_manager_msgs/LoadController'
p742
sg15
S'/rrbot/controller_manager/load_controller'
p743
sg17
S'haros_chris_model_merger, ros_snapshot'
p744
sg19
g20
((lp745
S'/gazebo'
p746
atp747
Rp748
sg25
S'rosrpc://XX.XX.XX.216:36343'
p749
sg27
(dp750
S'request_type'
p751
S'controller_manager_msgs/LoadControllerRequest'
p752
sS'md5sum'
p753
S'647e5c54b8d6468952d8d31f1efe96c0'
p754
sS'type'
p755
S'controller_manager_msgs/LoadController'
p756
sS'response_type'
p757
S'controller_manager_msgs/LoadControllerResponse'
p758
sS'callerid'
p759
S'/gazebo'
p760
ssg39
I1
sg477
g20
((lp761
g479
atp762
Rp763
sbsS'/gazebo/set_link_properties'
p764
g0
(g9
g2
Ntp765
Rp766
(dp767
g13
S'gazebo_msgs/SetLinkProperties'
p768
sg15
S'/gazebo/set_link_properties'
p769
sg17
S'ros_snapshot'
p770
sg19
g20
((lp771
S'/gazebo'
p772
atp773
Rp774
sg25
S'rosrpc://XX.XX.XX.216:36343'
p775
sg27
(dp776
S'request_type'
p777
S'gazebo_msgs/SetLinkPropertiesRequest'
p778
sS'md5sum'
p779
S'd534ce1b36ee99de0ffa806c3a6348f0'
p780
sS'type'
p781
S'gazebo_msgs/SetLinkProperties'
p782
sS'response_type'
p783
S'gazebo_msgs/SetLinkPropertiesResponse'
p784
sS'callerid'
p785
S'/gazebo'
p786
ssg39
I0
sbsS'/gazebo/set_model_state'
p787
g0
(g9
g2
Ntp788
Rp789
(dp790
g13
S'gazebo_msgs/SetModelState'
p791
sg15
S'/gazebo/set_model_state'
p792
sg17
S'ros_snapshot'
p793
sg19
g20
((lp794
S'/gazebo'
p795
atp796
Rp797
sg25
S'rosrpc://XX.XX.XX.216:36343'
p798
sg27
(dp799
S'request_type'
p800
S'gazebo_msgs/SetModelStateRequest'
p801
sS'md5sum'
p802
S'5b3ab0281d4f5445def017e3a2e4a07b'
p803
sS'type'
p804
S'gazebo_msgs/SetModelState'
p805
sS'response_type'
p806
S'gazebo_msgs/SetModelStateResponse'
p807
sS'callerid'
p808
S'/gazebo'
p809
ssg39
I0
sbsS'/gazebo/apply_body_wrench'
p810
g0
(g9
g2
Ntp811
Rp812
(dp813
g13
S'gazebo_msgs/ApplyBodyWrench'
p814
sg15
S'/gazebo/apply_body_wrench'
p815
sg17
S'ros_snapshot'
p816
sg19
g20
((lp817
S'/gazebo'
p818
atp819
Rp820
sg25
S'rosrpc://XX.XX.XX.216:36343'
p821
sg27
(dp822
S'request_type'
p823
S'gazebo_msgs/ApplyBodyWrenchRequest'
p824
sS'md5sum'
p825
S'585b9f9618aa0581b207e2f2d90866bc'
p826
sS'type'
p827
S'gazebo_msgs/ApplyBodyWrench'
p828
sS'response_type'
p829
S'gazebo_msgs/ApplyBodyWrenchResponse'
p830
sS'callerid'
p831
S'/gazebo'
p832
ssg39
I0
sbsS'/rrbot/camera1/image_raw/compressed/set_parameters'
p833
g0
(g9
g2
Ntp834
Rp835
(dp836
g13
S'dynamic_reconfigure/Reconfigure'
p837
sg15
S'/rrbot/camera1/image_raw/compressed/set_parameters'
p838
sg17
S'ros_snapshot'
p839
sg19
g20
((lp840
S'/gazebo'
p841
atp842
Rp843
sg25
S'rosrpc://XX.XX.XX.216:36343'
p844
sg27
(dp845
S'request_type'
p846
S'dynamic_reconfigure/ReconfigureRequest'
p847
sS'md5sum'
p848
S'bb125d226a21982a4a98760418dc2672'
p849
sS'type'
p850
S'dynamic_reconfigure/Reconfigure'
p851
sS'response_type'
p852
S'dynamic_reconfigure/ReconfigureResponse'
p853
sS'callerid'
p854
S'/gazebo'
p855
ssg39
I0
sbsS'/gazebo/get_link_state'
p856
g0
(g9
g2
Ntp857
Rp858
(dp859
g13
S'gazebo_msgs/GetLinkState'
p860
sg15
S'/gazebo/get_link_state'
p861
sg17
S'ros_snapshot'
p862
sg19
g20
((lp863
S'/gazebo'
p864
atp865
Rp866
sg25
S'rosrpc://XX.XX.XX.216:36343'
p867
sg27
(dp868
S'request_type'
p869
S'gazebo_msgs/GetLinkStateRequest'
p870
sS'md5sum'
p871
S'09d6c98cce97b35f7ab9bd70300657ab'
p872
sS'type'
p873
S'gazebo_msgs/GetLinkState'
p874
sS'response_type'
p875
S'gazebo_msgs/GetLinkStateResponse'
p876
sS'callerid'
p877
S'/gazebo'
p878
ssg39
I0
sbsS'/rrbot/position_controller/query_state'
p879
g0
(g9
g2
Ntp880
Rp881
(dp882
g13
S'control_msgs/QueryTrajectoryState'
p883
sg15
S'/rrbot/position_controller/query_state'
p884
sg17
S'ros_snapshot'
p885
sg19
g20
((lp886
S'/gazebo'
p887
atp888
Rp889
sg25
S'rosrpc://XX.XX.XX.216:36343'
p890
sg27
(dp891
S'request_type'
p892
S'control_msgs/QueryTrajectoryStateRequest'
p893
sS'md5sum'
p894
S'ec93cdecbd8062d761aa52b7c90cd44b'
p895
sS'type'
p896
S'control_msgs/QueryTrajectoryState'
p897
sS'response_type'
p898
S'control_msgs/QueryTrajectoryStateResponse'
p899
sS'callerid'
p900
S'/gazebo'
p901
ssg39
I0
sbsS'/gazebo/get_model_properties'
p902
g0
(g9
g2
Ntp903
Rp904
(dp905
g13
S'gazebo_msgs/GetModelProperties'
p906
sg15
S'/gazebo/get_model_properties'
p907
sg17
S'ros_snapshot'
p908
sg19
g20
((lp909
S'/gazebo'
p910
atp911
Rp912
sg25
S'rosrpc://XX.XX.XX.216:36343'
p913
sg27
(dp914
S'request_type'
p915
S'gazebo_msgs/GetModelPropertiesRequest'
p916
sS'md5sum'
p917
S'5717f7bd34ed990fa80e28b3015027a3'
p918
sS'type'
p919
S'gazebo_msgs/GetModelProperties'
p920
sS'response_type'
p921
S'gazebo_msgs/GetModelPropertiesResponse'
p922
sS'callerid'
p923
S'/gazebo'
p924
ssg39
I0
sbsS'/gazebo/set_light_properties'
p925
g0
(g9
g2
Ntp926
Rp927
(dp928
g13
S'gazebo_msgs/SetLightProperties'
p929
sg15
S'/gazebo/set_light_properties'
p930
sg17
S'ros_snapshot'
p931
sg19
g20
((lp932
S'/gazebo'
p933
atp934
Rp935
sg25
S'rosrpc://XX.XX.XX.216:36343'
p936
sg27
(dp937
S'request_type'
p938
S'gazebo_msgs/SetLightPropertiesRequest'
p939
sS'md5sum'
p940
S'cd58c48ac21e5165abf13bcaa9c079b4'
p941
sS'type'
p942
S'gazebo_msgs/SetLightProperties'
p943
sS'response_type'
p944
S'gazebo_msgs/SetLightPropertiesResponse'
p945
sS'callerid'
p946
S'/gazebo'
p947
ssg39
I0
sbsS'/gazebo/clear_joint_forces'
p948
g0
(g9
g2
Ntp949
Rp950
(dp951
g13
S'gazebo_msgs/JointRequest'
p952
sg15
S'/gazebo/clear_joint_forces'
p953
sg17
S'ros_snapshot'
p954
sg19
g20
((lp955
S'/gazebo'
p956
atp957
Rp958
sg25
S'rosrpc://XX.XX.XX.216:36343'
p959
sg27
(dp960
S'request_type'
p961
S'gazebo_msgs/JointRequestRequest'
p962
sS'md5sum'
p963
S'0be1351618e1dc030eb7959d9a4902de'
p964
sS'type'
p965
S'gazebo_msgs/JointRequest'
p966
sS'response_type'
p967
S'gazebo_msgs/JointRequestResponse'
p968
sS'callerid'
p969
S'/gazebo'
p970
ssg39
I0
sbsS'/gazebo/get_link_properties'
p971
g0
(g9
g2
Ntp972
Rp973
(dp974
g13
S'gazebo_msgs/GetLinkProperties'
p975
sg15
S'/gazebo/get_link_properties'
p976
sg17
S'ros_snapshot'
p977
sg19
g20
((lp978
S'/gazebo'
p979
atp980
Rp981
sg25
S'rosrpc://XX.XX.XX.216:36343'
p982
sg27
(dp983
S'request_type'
p984
S'gazebo_msgs/GetLinkPropertiesRequest'
p985
sS'md5sum'
p986
S'0e06a70386d0ee3fb880c02f23fcd821'
p987
sS'type'
p988
S'gazebo_msgs/GetLinkProperties'
p989
sS'response_type'
p990
S'gazebo_msgs/GetLinkPropertiesResponse'
p991
sS'callerid'
p992
S'/gazebo'
p993
ssg39
I0
sbssb.