ccopy_reg
_reconstructor
p0
(cchris_ros_modeling.specifications.node_specification
NodeSpecificationBank
p1
c__builtin__
object
p2
Ntp3
Rp4
(dp5
S'names_to_metamodels'
p6
(dp7
S'genpy/gensrv_py'
p8
g0
(cchris_ros_modeling.specifications.node_specification
NodeSpecification
p9
g2
Ntp10
Rp11
(dp12
S'action_servers'
p13
NsS'action_clients'
p14
NsS'validated'
p15
I00
sS'name'
p16
S'genpy/gensrv_py'
p17
sS'parameters'
p18
NsS'package'
p19
S'genpy'
p20
sS'services_provided'
p21
NsS'published_topics'
p22
NsS'version'
p23
I0
sS'source'
p24
S'package_modeler'
p25
sS'subscribed_topics'
p26
NsS'file_path'
p27
S'/opt/ros/melodic/lib/genpy/gensrv_py.py'
p28
sbsS'laptop_battery_monitor/laptop_battery'
p29
g0
(g9
g2
Ntp30
Rp31
(dp32
g13
Nsg14
Nsg15
I00
sg16
S'laptop_battery_monitor/laptop_battery'
p33
sg18
Nsg19
S'laptop_battery_monitor'
p34
sg21
Nsg22
Nsg23
I0
sg24
S'package_modeler'
p35
sg26
Nsg27
S'/opt/ros/melodic/lib/laptop_battery_monitor/laptop_battery.py'
p36
sbsS'interactive_marker_tutorials/menu'
p37
g0
(g9
g2
Ntp38
Rp39
(dp40
g13
Nsg14
Nsg15
I00
sg16
S'interactive_marker_tutorials/menu'
p41
sg18
Nsg19
S'interactive_marker_tutorials'
p42
sg21
Nsg22
Nsg23
I0
sg24
S'package_modeler'
p43
sg26
Nsg27
(lp44
S'/opt/ros/melodic/lib/interactive_marker_tutorials/menu.py'
p45
aS'/opt/ros/melodic/lib/interactive_marker_tutorials/menu'
p46
asbsS'stage_ros/upgrade-world'
p47
g0
(g9
g2
Ntp48
Rp49
(dp50
g13
Nsg14
Nsg15
I00
sg16
S'stage_ros/upgrade-world'
p51
sg18
Nsg19
S'stage_ros'
p52
sg21
Nsg22
Nsg23
I0
sg24
S'package_modeler'
p53
sg26
Nsg27
S'/opt/ros/melodic/lib/stage_ros/upgrade-world.sh'
p54
sbsS'diagnostic_aggregator/add_analyzers'
p55
g0
(g9
g2
Ntp56
Rp57
(dp58
g13
Nsg14
Nsg15
I00
sg16
S'diagnostic_aggregator/add_analyzers'
p59
sg18
Nsg19
S'diagnostic_aggregator'
p60
sg21
Nsg22
Nsg23
I0
sg24
S'package_modeler'
p61
sg26
Nsg27
S'/opt/ros/melodic/lib/diagnostic_aggregator/add_analyzers'
p62
sbsS'roscpp_tutorials/parameters'
p63
g0
(g9
g2
Ntp64
Rp65
(dp66
g13
Nsg14
Nsg15
I00
sg16
S'roscpp_tutorials/parameters'
p67
sg18
Nsg19
S'roscpp_tutorials'
p68
sg21
Nsg22
Nsg23
I0
sg24
S'package_modeler'
p69
sg26
Nsg27
S'/opt/ros/melodic/lib/roscpp_tutorials/parameters'
p70
sbsS'rqt_plot/rqt_plot'
p71
g0
(g9
g2
Ntp72
Rp73
(dp74
g13
Nsg14
Nsg15
I00
sg16
S'rqt_plot/rqt_plot'
p75
sg18
Nsg19
S'rqt_plot'
p76
sg21
Nsg22
Nsg23
I0
sg24
S'package_modeler'
p77
sg26
Nsg27
S'/opt/ros/melodic/lib/rqt_plot/rqt_plot'
p78
sbsS'interactive_marker_tutorials/simple_marker'
p79
g0
(g9
g2
Ntp80
Rp81
(dp82
g13
Nsg14
Nsg15
I00
sg16
S'interactive_marker_tutorials/simple_marker'
p83
sg18
Nsg19
S'interactive_marker_tutorials'
p84
sg21
Nsg22
Nsg23
I0
sg24
S'package_modeler'
p85
sg26
Nsg27
(lp86
S'/opt/ros/melodic/lib/interactive_marker_tutorials/simple_marker'
p87
aS'/opt/ros/melodic/lib/interactive_marker_tutorials/simple_marker.py'
p88
asbsS'robot_state_publisher/robot_state_publisher'
p89
g0
(g9
g2
Ntp90
Rp91
(dp92
g13
(dp93
sg14
(dp94
sg15
I01
sg16
S'robot_state_publisher/robot_state_publisher'
p95
sg18
(dp96
S'robot_description'
p97
S'str'
p98
sS'ignore_timestamp'
p99
S'bool'
p100
sS'tf_prefix'
p101
S'str'
p102
sS'use_tf_static'
p103
S'bool'
p104
sS'publish_frequency'
p105
S'float'
p106
ssg19
S'robot_state_publisher'
p107
sg21
(dp108
sg22
(dp109
S'tf'
p110
S'tf2_msgs/TFMessage'
p111
sS'/tf_static'
p112
S'tf2_msgs/TFMessage'
p113
sS'tf_static'
p114
S'tf2_msgs/TFMessage'
p115
sS'/tf'
p116
S'tf2_msgs/TFMessage'
p117
ssg23
I2
sg24
(lp118
S'haros_chris_model_merger'
p119
aS'package_modeler'
p120
aS'ros_snapshot'
p121
asg26
(dp122
S'joint_states'
p123
S'sensor_msgs/JointState'
p124
sS'clock'
p125
S'rosgraph_msgs/Clock'
p126
ssg27
S'/opt/ros/melodic/lib/robot_state_publisher/robot_state_publisher'
p127
sbsS'rosbag/fastrebag'
p128
g0
(g9
g2
Ntp129
Rp130
(dp131
g13
Nsg14
Nsg15
I00
sg16
S'rosbag/fastrebag'
p132
sg18
Nsg19
S'rosbag'
p133
sg21
Nsg22
Nsg23
I0
sg24
S'package_modeler'
p134
sg26
Nsg27
S'/opt/ros/melodic/lib/rosbag/fastrebag.py'
p135
sbsS'image_view/image_saver'
p136
g0
(g9
g2
Ntp137
Rp138
(dp139
g13
Nsg14
Nsg15
I00
sg16
S'image_view/image_saver'
p140
sg18
Nsg19
S'image_view'
p141
sg21
Nsg22
Nsg23
I0
sg24
S'package_modeler'
p142
sg26
Nsg27
S'/opt/ros/melodic/lib/image_view/image_saver'
p143
sbsS'cartographer_ros/cartographer_offline_node'
p144
g0
(g9
g2
Ntp145
Rp146
(dp147
g13
Nsg14
Nsg15
I00
sg16
S'cartographer_ros/cartographer_offline_node'
p148
sg18
Nsg19
S'cartographer_ros'
p149
sg21
Nsg22
Nsg23
I0
sg24
S'package_modeler'
p150
sg26
Nsg27
S'/opt/ros/melodic/lib/cartographer_ros/cartographer_offline_node'
p151
sbsS'gazebo_ros/debug'
p152
g0
(g9
g2
Ntp153
Rp154
(dp155
g13
Nsg14
Nsg15
I00
sg16
S'gazebo_ros/debug'
p156
sg18
Nsg19
S'gazebo_ros'
p157
sg21
Nsg22
Nsg23
I0
sg24
S'package_modeler'
p158
sg26
Nsg27
S'/opt/ros/melodic/lib/gazebo_ros/debug'
p159
sbsS'interactive_marker_tutorials/point_cloud'
p160
g0
(g9
g2
Ntp161
Rp162
(dp163
g13
Nsg14
Nsg15
I00
sg16
S'interactive_marker_tutorials/point_cloud'
p164
sg18
Nsg19
S'interactive_marker_tutorials'
p165
sg21
Nsg22
Nsg23
I0
sg24
S'package_modeler'
p166
sg26
Nsg27
S'/opt/ros/melodic/lib/interactive_marker_tutorials/point_cloud'
p167
sbsS'roslaunch/roslaunch-check'
p168
g0
(g9
g2
Ntp169
Rp170
(dp171
g13
Nsg14
Nsg15
I00
sg16
S'roslaunch/roslaunch-check'
p172
sg18
Nsg19
S'roslaunch'
p173
sg21
Nsg22
Nsg23
I0
sg24
S'package_modeler'
p174
sg26
Nsg27
S'/opt/ros/melodic/share/roslaunch/scripts/roslaunch-check'
p175
sbsS'turtlesim/turtlesim_node'
p176
g0
(g9
g2
Ntp177
Rp178
(dp179
g13
Nsg14
Nsg15
I00
sg16
S'turtlesim/turtlesim_node'
p180
sg18
Nsg19
S'turtlesim'
p181
sg21
Nsg22
Nsg23
I0
sg24
S'package_modeler'
p182
sg26
Nsg27
S'/opt/ros/melodic/lib/turtlesim/turtlesim_node'
p183
sbsS'chris_package_modeler/package_modeler'
p184
g0
(g9
g2
Ntp185
Rp186
(dp187
g13
Nsg14
Nsg15
I00
sg16
S'chris_package_modeler/package_modeler'
p188
sg18
Nsg19
S'chris_package_modeler'
p189
sg21
Nsg22
Nsg23
I0
sg24
S'package_modeler'
p190
sg26
Nsg27
S'/home/robotics/robotics/src/ros_probe/chris_package_modeler/bin/package_modeler'
p191
sbsS'rosbag/encrypt'
p192
g0
(g9
g2
Ntp193
Rp194
(dp195
g13
Nsg14
Nsg15
I00
sg16
S'rosbag/encrypt'
p196
sg18
Nsg19
S'rosbag'
p197
sg21
Nsg22
Nsg23
I0
sg24
S'package_modeler'
p198
sg26
Nsg27
S'/opt/ros/melodic/lib/rosbag/encrypt'
p199
sbsS'rqt_py_console/rqt_py_console'
p200
g0
(g9
g2
Ntp201
Rp202
(dp203
g13
Nsg14
Nsg15
I00
sg16
S'rqt_py_console/rqt_py_console'
p204
sg18
Nsg19
S'rqt_py_console'
p205
sg21
Nsg22
Nsg23
I0
sg24
S'package_modeler'
p206
sg26
Nsg27
S'/opt/ros/melodic/lib/rqt_py_console/rqt_py_console'
p207
sbsS'interactive_marker_tutorials/pong'
p208
g0
(g9
g2
Ntp209
Rp210
(dp211
g13
Nsg14
Nsg15
I00
sg16
S'interactive_marker_tutorials/pong'
p212
sg18
Nsg19
S'interactive_marker_tutorials'
p213
sg21
Nsg22
Nsg23
I0
sg24
S'package_modeler'
p214
sg26
Nsg27
S'/opt/ros/melodic/lib/interactive_marker_tutorials/pong'
p215
sbsS'image_publisher/image_publisher'
p216
g0
(g9
g2
Ntp217
Rp218
(dp219
g13
Nsg14
Nsg15
I00
sg16
S'image_publisher/image_publisher'
p220
sg18
Nsg19
S'image_publisher'
p221
sg21
Nsg22
Nsg23
I0
sg24
S'package_modeler'
p222
sg26
Nsg27
S'/opt/ros/melodic/lib/image_publisher/image_publisher'
p223
sbsS'urg_c/timeout_test'
p224
g0
(g9
g2
Ntp225
Rp226
(dp227
g13
Nsg14
Nsg15
I00
sg16
S'urg_c/timeout_test'
p228
sg18
Nsg19
S'urg_c'
p229
sg21
Nsg22
Nsg23
I0
sg24
S'package_modeler'
p230
sg26
Nsg27
S'/opt/ros/melodic/lib/urg_c/timeout_test'
p231
sbsS'visualization_marker_tutorials/points_and_lines'
p232
g0
(g9
g2
Ntp233
Rp234
(dp235
g13
Nsg14
Nsg15
I00
sg16
S'visualization_marker_tutorials/points_and_lines'
p236
sg18
Nsg19
S'visualization_marker_tutorials'
p237
sg21
Nsg22
Nsg23
I0
sg24
S'package_modeler'
p238
sg26
Nsg27
S'/opt/ros/melodic/lib/visualization_marker_tutorials/points_and_lines'
p239
sbsS'diagnostic_common_diagnostics/hd_monitor'
p240
g0
(g9
g2
Ntp241
Rp242
(dp243
g13
Nsg14
Nsg15
I00
sg16
S'diagnostic_common_diagnostics/hd_monitor'
p244
sg18
Nsg19
S'diagnostic_common_diagnostics'
p245
sg21
Nsg22
Nsg23
I0
sg24
S'package_modeler'
p246
sg26
Nsg27
S'/opt/ros/melodic/lib/diagnostic_common_diagnostics/hd_monitor.py'
p247
sbsS'joy/joy_remap'
p248
g0
(g9
g2
Ntp249
Rp250
(dp251
g13
Nsg14
Nsg15
I00
sg16
S'joy/joy_remap'
p252
sg18
Nsg19
S'joy'
p253
sg21
Nsg22
Nsg23
I0
sg24
S'package_modeler'
p254
sg26
Nsg27
S'/opt/ros/melodic/share/joy/scripts/joy_remap.py'
p255
sbsS'diagnostic_aggregator/analyzer_loader'
p256
g0
(g9
g2
Ntp257
Rp258
(dp259
g13
Nsg14
Nsg15
I00
sg16
S'diagnostic_aggregator/analyzer_loader'
p260
sg18
Nsg19
S'diagnostic_aggregator'
p261
sg21
Nsg22
Nsg23
I0
sg24
S'package_modeler'
p262
sg26
Nsg27
S'/opt/ros/melodic/lib/diagnostic_aggregator/analyzer_loader'
p263
sbsS'rosunit/check_test_ran'
p264
g0
(g9
g2
Ntp265
Rp266
(dp267
g13
Nsg14
Nsg15
I00
sg16
S'rosunit/check_test_ran'
p268
sg18
Nsg19
S'rosunit'
p269
sg21
Nsg22
Nsg23
I0
sg24
S'package_modeler'
p270
sg26
Nsg27
S'/opt/ros/melodic/share/rosunit/scripts/check_test_ran.py'
p271
sbsS'ar_track_alvar/individualMarkers'
p272
g0
(g9
g2
Ntp273
Rp274
(dp275
g13
Nsg14
Nsg15
I00
sg16
S'ar_track_alvar/individualMarkers'
p276
sg18
Nsg19
S'ar_track_alvar'
p277
sg21
Nsg22
Nsg23
I0
sg24
S'package_modeler'
p278
sg26
Nsg27
S'/opt/ros/melodic/lib/ar_track_alvar/individualMarkers'
p279
sbsS'roscpp_tutorials/node_handle_namespaces'
p280
g0
(g9
g2
Ntp281
Rp282
(dp283
g13
Nsg14
Nsg15
I00
sg16
S'roscpp_tutorials/node_handle_namespaces'
p284
sg18
Nsg19
S'roscpp_tutorials'
p285
sg21
Nsg22
Nsg23
I0
sg24
S'package_modeler'
p286
sg26
Nsg27
S'/opt/ros/melodic/lib/roscpp_tutorials/node_handle_namespaces'
p287
sbsS'cartographer_ros/tf_remove_frames'
p288
g0
(g9
g2
Ntp289
Rp290
(dp291
g13
Nsg14
Nsg15
I00
sg16
S'cartographer_ros/tf_remove_frames'
p292
sg18
Nsg19
S'cartographer_ros'
p293
sg21
Nsg22
Nsg23
I0
sg24
S'package_modeler'
p294
sg26
Nsg27
S'/opt/ros/melodic/lib/cartographer_ros/tf_remove_frames.py'
p295
sbsS'teleop_twist_keyboard/teleop_twist_keyboard'
p296
g0
(g9
g2
Ntp297
Rp298
(dp299
g13
Nsg14
Nsg15
I00
sg16
S'teleop_twist_keyboard/teleop_twist_keyboard'
p300
sg18
Nsg19
S'teleop_twist_keyboard'
p301
sg21
Nsg22
Nsg23
I0
sg24
S'package_modeler'
p302
sg26
Nsg27
S'/opt/ros/melodic/lib/teleop_twist_keyboard/teleop_twist_keyboard.py'
p303
sbsS'image_view/extract_images'
p304
g0
(g9
g2
Ntp305
Rp306
(dp307
g13
Nsg14
Nsg15
I00
sg16
S'image_view/extract_images'
p308
sg18
Nsg19
S'image_view'
p309
sg21
Nsg22
Nsg23
I0
sg24
S'package_modeler'
p310
sg26
Nsg27
S'/opt/ros/melodic/lib/image_view/extract_images'
p311
sbsS'controller_manager/controller_group'
p312
g0
(g9
g2
Ntp313
Rp314
(dp315
g13
Nsg14
Nsg15
I00
sg16
S'controller_manager/controller_group'
p316
sg18
Nsg19
S'controller_manager'
p317
sg21
Nsg22
Nsg23
I0
sg24
S'package_modeler'
p318
sg26
Nsg27
S'/opt/ros/melodic/lib/controller_manager/controller_group'
p319
sbsS'rosserial_server/udp_socket_node'
p320
g0
(g9
g2
Ntp321
Rp322
(dp323
g13
Nsg14
Nsg15
I00
sg16
S'rosserial_server/udp_socket_node'
p324
sg18
Nsg19
S'rosserial_server'
p325
sg21
Nsg22
Nsg23
I0
sg24
S'package_modeler'
p326
sg26
Nsg27
S'/opt/ros/melodic/lib/rosserial_server/udp_socket_node'
p327
sbsS'turtle_tf2/turtle_tf2_message_broadcaster'
p328
g0
(g9
g2
Ntp329
Rp330
(dp331
g13
Nsg14
Nsg15
I00
sg16
S'turtle_tf2/turtle_tf2_message_broadcaster'
p332
sg18
Nsg19
S'turtle_tf2'
p333
sg21
Nsg22
Nsg23
I0
sg24
S'package_modeler'
p334
sg26
Nsg27
S'/opt/ros/melodic/lib/turtle_tf2/turtle_tf2_message_broadcaster.py'
p335
sbsS'tf/tf_change_notifier'
p336
g0
(g9
g2
Ntp337
Rp338
(dp339
g13
Nsg14
Nsg15
I00
sg16
S'tf/tf_change_notifier'
p340
sg18
Nsg19
S'tf'
p341
sg21
Nsg22
Nsg23
I0
sg24
S'package_modeler'
p342
sg26
Nsg27
S'/opt/ros/melodic/lib/tf/tf_change_notifier'
p343
sbsS'turtle_actionlib/shape_client'
p344
g0
(g9
g2
Ntp345
Rp346
(dp347
g13
Nsg14
Nsg15
I00
sg16
S'turtle_actionlib/shape_client'
p348
sg18
Nsg19
S'turtle_actionlib'
p349
sg21
Nsg22
Nsg23
I0
sg24
S'package_modeler'
p350
sg26
Nsg27
S'/opt/ros/melodic/lib/turtle_actionlib/shape_client'
p351
sbsS'robot_localization/navsat_transform_node'
p352
g0
(g9
g2
Ntp353
Rp354
(dp355
g13
Nsg14
Nsg15
I00
sg16
S'robot_localization/navsat_transform_node'
p356
sg18
Nsg19
S'robot_localization'
p357
sg21
Nsg22
Nsg23
I0
sg24
S'package_modeler'
p358
sg26
Nsg27
S'/opt/ros/melodic/lib/robot_localization/navsat_transform_node'
p359
sbsS'urg_c/calculate_xy'
p360
g0
(g9
g2
Ntp361
Rp362
(dp363
g13
Nsg14
Nsg15
I00
sg16
S'urg_c/calculate_xy'
p364
sg18
Nsg19
S'urg_c'
p365
sg21
Nsg22
Nsg23
I0
sg24
S'package_modeler'
p366
sg26
Nsg27
S'/opt/ros/melodic/lib/urg_c/calculate_xy'
p367
sbsS'actionlib/axclient'
p368
g0
(g9
g2
Ntp369
Rp370
(dp371
g13
Nsg14
Nsg15
I00
sg16
S'actionlib/axclient'
p372
sg18
Nsg19
S'actionlib'
p373
sg21
Nsg22
Nsg23
I0
sg24
S'package_modeler'
p374
sg26
Nsg27
S'/opt/ros/melodic/lib/actionlib/axclient.py'
p375
sbsS'roscpp_tutorials/cached_parameters'
p376
g0
(g9
g2
Ntp377
Rp378
(dp379
g13
Nsg14
Nsg15
I00
sg16
S'roscpp_tutorials/cached_parameters'
p380
sg18
Nsg19
S'roscpp_tutorials'
p381
sg21
Nsg22
Nsg23
I0
sg24
S'package_modeler'
p382
sg26
Nsg27
S'/opt/ros/melodic/lib/roscpp_tutorials/cached_parameters'
p383
sbsS'chris_scripts/chris_update'
p384
g0
(g9
g2
Ntp385
Rp386
(dp387
g13
Nsg14
Nsg15
I00
sg16
S'chris_scripts/chris_update'
p388
sg18
Nsg19
S'chris_scripts'
p389
sg21
Nsg22
Nsg23
I0
sg24
S'package_modeler'
p390
sg26
Nsg27
S'/home/robotics/robotics/src/chris_scripts/scripts/helper/chris_update.sh'
p391
sbsS'rosbag/fix_moved_messages'
p392
g0
(g9
g2
Ntp393
Rp394
(dp395
g13
Nsg14
Nsg15
I00
sg16
S'rosbag/fix_moved_messages'
p396
sg18
Nsg19
S'rosbag'
p397
sg21
Nsg22
Nsg23
I0
sg24
S'package_modeler'
p398
sg26
Nsg27
S'/opt/ros/melodic/lib/rosbag/fix_moved_messages.py'
p399
sbsS'topic_tools/relay_field'
p400
g0
(g9
g2
Ntp401
Rp402
(dp403
g13
Nsg14
Nsg15
I00
sg16
S'topic_tools/relay_field'
p404
sg18
Nsg19
S'topic_tools'
p405
sg21
Nsg22
Nsg23
I0
sg24
S'package_modeler'
p406
sg26
Nsg27
S'/opt/ros/melodic/lib/topic_tools/relay_field'
p407
sbsS'turtle_tf2/dynamic_tf2_broadcaster'
p408
g0
(g9
g2
Ntp409
Rp410
(dp411
g13
Nsg14
Nsg15
I00
sg16
S'turtle_tf2/dynamic_tf2_broadcaster'
p412
sg18
Nsg19
S'turtle_tf2'
p413
sg21
Nsg22
Nsg23
I0
sg24
S'package_modeler'
p414
sg26
Nsg27
S'/opt/ros/melodic/lib/turtle_tf2/dynamic_tf2_broadcaster.py'
p415
sbsS'rqt_runtime_monitor/rqt_runtime_monitor'
p416
g0
(g9
g2
Ntp417
Rp418
(dp419
g13
Nsg14
Nsg15
I00
sg16
S'rqt_runtime_monitor/rqt_runtime_monitor'
p420
sg18
Nsg19
S'rqt_runtime_monitor'
p421
sg21
Nsg22
Nsg23
I0
sg24
S'package_modeler'
p422
sg26
Nsg27
S'/opt/ros/melodic/lib/rqt_runtime_monitor/rqt_runtime_monitor'
p423
sbsS'stage_ros/stageros'
p424
g0
(g9
g2
Ntp425
Rp426
(dp427
g13
Nsg14
Nsg15
I00
sg16
S'stage_ros/stageros'
p428
sg18
Nsg19
S'stage_ros'
p429
sg21
Nsg22
Nsg23
I0
sg24
S'package_modeler'
p430
sg26
Nsg27
S'/opt/ros/melodic/lib/stage_ros/stageros'
p431
sbsS'gazebo_ros/gzserver'
p432
g0
(g9
g2
Ntp433
Rp434
(dp435
g13
Nsg14
Nsg15
I00
sg16
S'gazebo_ros/gzserver'
p436
sg18
Nsg19
S'gazebo_ros'
p437
sg21
Nsg22
Nsg23
I0
sg24
S'package_modeler'
p438
sg26
Nsg27
S'/opt/ros/melodic/lib/gazebo_ros/gzserver'
p439
sbsS'amcl/amcl'
p440
g0
(g9
g2
Ntp441
Rp442
(dp443
g13
Nsg14
Nsg15
I00
sg16
S'amcl/amcl'
p444
sg18
Nsg19
S'amcl'
p445
sg21
Nsg22
Nsg23
I0
sg24
S'package_modeler'
p446
sg26
Nsg27
S'/opt/ros/melodic/lib/amcl/amcl'
p447
sbsS'roscpp_tutorials/add_two_ints_server_class'
p448
g0
(g9
g2
Ntp449
Rp450
(dp451
g13
Nsg14
Nsg15
I00
sg16
S'roscpp_tutorials/add_two_ints_server_class'
p452
sg18
Nsg19
S'roscpp_tutorials'
p453
sg21
Nsg22
Nsg23
I0
sg24
S'package_modeler'
p454
sg26
Nsg27
S'/opt/ros/melodic/lib/roscpp_tutorials/add_two_ints_server_class'
p455
sbsS'tf/tf_remap'
p456
g0
(g9
g2
Ntp457
Rp458
(dp459
g13
Nsg14
Nsg15
I00
sg16
S'tf/tf_remap'
p460
sg18
Nsg19
S'tf'
p461
sg21
Nsg22
Nsg23
I0
sg24
S'package_modeler'
p462
sg26
Nsg27
S'/opt/ros/melodic/lib/tf/tf_remap'
p463
sbsS'pcl_ros/bag_to_pcd'
p464
g0
(g9
g2
Ntp465
Rp466
(dp467
g13
Nsg14
Nsg15
I00
sg16
S'pcl_ros/bag_to_pcd'
p468
sg18
Nsg19
S'pcl_ros'
p469
sg21
Nsg22
Nsg23
I0
sg24
S'package_modeler'
p470
sg26
Nsg27
S'/opt/ros/melodic/lib/pcl_ros/bag_to_pcd'
p471
sbsS'class_loader/class_loader_headers_update'
p472
g0
(g9
g2
Ntp473
Rp474
(dp475
g13
Nsg14
Nsg15
I00
sg16
S'class_loader/class_loader_headers_update'
p476
sg18
Nsg19
S'class_loader'
p477
sg21
Nsg22
Nsg23
I0
sg24
S'package_modeler'
p478
sg26
Nsg27
S'/opt/ros/melodic/lib/class_loader/class_loader_headers_update.py'
p479
sbsS'rqt_bag/rqt_bag'
p480
g0
(g9
g2
Ntp481
Rp482
(dp483
g13
Nsg14
Nsg15
I00
sg16
S'rqt_bag/rqt_bag'
p484
sg18
Nsg19
S'rqt_bag'
p485
sg21
Nsg22
Nsg23
I0
sg24
S'package_modeler'
p486
sg26
Nsg27
S'/opt/ros/melodic/lib/rqt_bag/rqt_bag'
p487
sbsS'roslint/pep8'
p488
g0
(g9
g2
Ntp489
Rp490
(dp491
g13
Nsg14
Nsg15
I00
sg16
S'roslint/pep8'
p492
sg18
Nsg19
S'roslint'
p493
sg21
Nsg22
Nsg23
I0
sg24
S'package_modeler'
p494
sg26
Nsg27
S'/opt/ros/melodic/lib/roslint/pep8'
p495
sbsS'turtle_tf/dynamic_tf_broadcaster'
p496
g0
(g9
g2
Ntp497
Rp498
(dp499
g13
Nsg14
Nsg15
I00
sg16
S'turtle_tf/dynamic_tf_broadcaster'
p500
sg18
Nsg19
S'turtle_tf'
p501
sg21
Nsg22
Nsg23
I0
sg24
S'package_modeler'
p502
sg26
Nsg27
S'/opt/ros/melodic/lib/turtle_tf/dynamic_tf_broadcaster.py'
p503
sbsS'camera_calibration/cameracalibrator'
p504
g0
(g9
g2
Ntp505
Rp506
(dp507
g13
Nsg14
Nsg15
I00
sg16
S'camera_calibration/cameracalibrator'
p508
sg18
Nsg19
S'camera_calibration'
p509
sg21
Nsg22
Nsg23
I0
sg24
S'package_modeler'
p510
sg26
Nsg27
S'/opt/ros/melodic/lib/camera_calibration/cameracalibrator.py'
p511
sbsS'rosunit/summarize_results'
p512
g0
(g9
g2
Ntp513
Rp514
(dp515
g13
Nsg14
Nsg15
I00
sg16
S'rosunit/summarize_results'
p516
sg18
Nsg19
S'rosunit'
p517
sg21
Nsg22
Nsg23
I0
sg24
S'package_modeler'
p518
sg26
Nsg27
S'/opt/ros/melodic/share/rosunit/scripts/summarize_results.py'
p519
sbsS'interactive_marker_tutorials/basic_controls'
p520
g0
(g9
g2
Ntp521
Rp522
(dp523
g13
Nsg14
Nsg15
I00
sg16
S'interactive_marker_tutorials/basic_controls'
p524
sg18
Nsg19
S'interactive_marker_tutorials'
p525
sg21
Nsg22
Nsg23
I0
sg24
S'package_modeler'
p526
sg26
Nsg27
(lp527
S'/opt/ros/melodic/lib/interactive_marker_tutorials/basic_controls.py'
p528
aS'/opt/ros/melodic/lib/interactive_marker_tutorials/basic_controls'
p529
asbsS'ar_track_alvar/trainMarkerBundle'
p530
g0
(g9
g2
Ntp531
Rp532
(dp533
g13
Nsg14
Nsg15
I00
sg16
S'ar_track_alvar/trainMarkerBundle'
p534
sg18
Nsg19
S'ar_track_alvar'
p535
sg21
Nsg22
Nsg23
I0
sg24
S'package_modeler'
p536
sg26
Nsg27
S'/opt/ros/melodic/lib/ar_track_alvar/trainMarkerBundle'
p537
sbsS'roscpp_tutorials/notify_connect'
p538
g0
(g9
g2
Ntp539
Rp540
(dp541
g13
Nsg14
Nsg15
I00
sg16
S'roscpp_tutorials/notify_connect'
p542
sg18
Nsg19
S'roscpp_tutorials'
p543
sg21
Nsg22
Nsg23
I0
sg24
S'package_modeler'
p544
sg26
Nsg27
S'/opt/ros/melodic/lib/roscpp_tutorials/notify_connect'
p545
sbsS'laser_assembler/point_cloud2_assembler'
p546
g0
(g9
g2
Ntp547
Rp548
(dp549
g13
Nsg14
Nsg15
I00
sg16
S'laser_assembler/point_cloud2_assembler'
p550
sg18
Nsg19
S'laser_assembler'
p551
sg21
Nsg22
Nsg23
I0
sg24
S'package_modeler'
p552
sg26
Nsg27
S'/opt/ros/melodic/lib/laser_assembler/point_cloud2_assembler'
p553
sbsS'librviz_tutorial/myviz'
p554
g0
(g9
g2
Ntp555
Rp556
(dp557
g13
Nsg14
Nsg15
I00
sg16
S'librviz_tutorial/myviz'
p558
sg18
Nsg19
S'librviz_tutorial'
p559
sg21
Nsg22
Nsg23
I0
sg24
S'package_modeler'
p560
sg26
Nsg27
S'/opt/ros/melodic/lib/librviz_tutorial/myviz'
p561
sbsS'urdfdom_py/display_urdf'
p562
g0
(g9
g2
Ntp563
Rp564
(dp565
g13
Nsg14
Nsg15
I00
sg16
S'urdfdom_py/display_urdf'
p566
sg18
Nsg19
S'urdfdom_py'
p567
sg21
Nsg22
Nsg23
I0
sg24
S'package_modeler'
p568
sg26
Nsg27
S'/opt/ros/melodic/lib/urdfdom_py/display_urdf'
p569
sbsS'robot_pose_ekf/wtf'
p570
g0
(g9
g2
Ntp571
Rp572
(dp573
g13
Nsg14
Nsg15
I00
sg16
S'robot_pose_ekf/wtf'
p574
sg18
Nsg19
S'robot_pose_ekf'
p575
sg21
Nsg22
Nsg23
I0
sg24
S'package_modeler'
p576
sg26
Nsg27
S'/opt/ros/melodic/lib/robot_pose_ekf/wtf.py'
p577
sbsS'genlisp/gen_lisp'
p578
g0
(g9
g2
Ntp579
Rp580
(dp581
g13
Nsg14
Nsg15
I00
sg16
S'genlisp/gen_lisp'
p582
sg18
Nsg19
S'genlisp'
p583
sg21
Nsg22
Nsg23
I0
sg24
S'package_modeler'
p584
sg26
Nsg27
S'/opt/ros/melodic/lib/genlisp/gen_lisp.py'
p585
sbsS'roslisp/compile_load_manifest'
p586
g0
(g9
g2
Ntp587
Rp588
(dp589
g13
Nsg14
Nsg15
I00
sg16
S'roslisp/compile_load_manifest'
p590
sg18
Nsg19
S'roslisp'
p591
sg21
Nsg22
Nsg23
I0
sg24
S'package_modeler'
p592
sg26
Nsg27
S'/opt/ros/melodic/share/roslisp/scripts/compile_load_manifest'
p593
sbsS'ar_track_alvar/findMarkerBundlesNoKinect'
p594
g0
(g9
g2
Ntp595
Rp596
(dp597
g13
Nsg14
Nsg15
I00
sg16
S'ar_track_alvar/findMarkerBundlesNoKinect'
p598
sg18
Nsg19
S'ar_track_alvar'
p599
sg21
Nsg22
Nsg23
I0
sg24
S'package_modeler'
p600
sg26
Nsg27
S'/opt/ros/melodic/lib/ar_track_alvar/findMarkerBundlesNoKinect'
p601
sbsS'laser_assembler/merge_clouds'
p602
g0
(g9
g2
Ntp603
Rp604
(dp605
g13
Nsg14
Nsg15
I00
sg16
S'laser_assembler/merge_clouds'
p606
sg18
Nsg19
S'laser_assembler'
p607
sg21
Nsg22
Nsg23
I0
sg24
S'package_modeler'
p608
sg26
Nsg27
S'/opt/ros/melodic/lib/laser_assembler/merge_clouds'
p609
sbsS'topic_tools/mux_list'
p610
g0
(g9
g2
Ntp611
Rp612
(dp613
g13
Nsg14
Nsg15
I00
sg16
S'topic_tools/mux_list'
p614
sg18
Nsg19
S'topic_tools'
p615
sg21
Nsg22
Nsg23
I0
sg24
S'package_modeler'
p616
sg26
Nsg27
S'/opt/ros/melodic/lib/topic_tools/mux_list'
p617
sbsS'imu_filter_madgwick/imu_filter_node'
p618
g0
(g9
g2
Ntp619
Rp620
(dp621
g13
Nsg14
Nsg15
I00
sg16
S'imu_filter_madgwick/imu_filter_node'
p622
sg18
Nsg19
S'imu_filter_madgwick'
p623
sg21
Nsg22
Nsg23
I0
sg24
S'package_modeler'
p624
sg26
Nsg27
S'/opt/ros/melodic/lib/imu_filter_madgwick/imu_filter_node'
p625
sbsS'tf/tf_empty_listener'
p626
g0
(g9
g2
Ntp627
Rp628
(dp629
g13
Nsg14
Nsg15
I00
sg16
S'tf/tf_empty_listener'
p630
sg18
Nsg19
S'tf'
p631
sg21
Nsg22
Nsg23
I0
sg24
S'package_modeler'
p632
sg26
Nsg27
S'/opt/ros/melodic/lib/tf/tf_empty_listener'
p633
sbsS'actionlib/dynamic_action'
p634
g0
(g9
g2
Ntp635
Rp636
(dp637
g13
Nsg14
Nsg15
I00
sg16
S'actionlib/dynamic_action'
p638
sg18
Nsg19
S'actionlib'
p639
sg21
Nsg22
Nsg23
I0
sg24
S'package_modeler'
p640
sg26
Nsg27
S'/opt/ros/melodic/lib/actionlib/dynamic_action.py'
p641
sbsS'gazebo_ros/spawn_model'
p642
g0
(g9
g2
Ntp643
Rp644
(dp645
g13
Nsg14
Nsg15
I00
sg16
S'gazebo_ros/spawn_model'
p646
sg18
Nsg19
S'gazebo_ros'
p647
sg21
Nsg22
Nsg23
I0
sg24
S'package_modeler'
p648
sg26
Nsg27
S'/opt/ros/melodic/lib/gazebo_ros/spawn_model'
p649
sbsS'rqt_image_view/rqt_image_view'
p650
g0
(g9
g2
Ntp651
Rp652
(dp653
g13
Nsg14
Nsg15
I00
sg16
S'rqt_image_view/rqt_image_view'
p654
sg18
Nsg19
S'rqt_image_view'
p655
sg21
Nsg22
Nsg23
I0
sg24
S'package_modeler'
p656
sg26
Nsg27
S'/opt/ros/melodic/lib/rqt_image_view/rqt_image_view'
p657
sbsS'robot_state_publisher/state_publisher'
p658
g0
(g9
g2
Ntp659
Rp660
(dp661
g13
Nsg14
Nsg15
I00
sg16
S'robot_state_publisher/state_publisher'
p662
sg18
Nsg19
S'robot_state_publisher'
p663
sg21
Nsg22
Nsg23
I0
sg24
S'package_modeler'
p664
sg26
Nsg27
S'/opt/ros/melodic/lib/robot_state_publisher/state_publisher'
p665
sbsS'diagnostic_common_diagnostics/cpu_monitor'
p666
g0
(g9
g2
Ntp667
Rp668
(dp669
g13
Nsg14
Nsg15
I00
sg16
S'diagnostic_common_diagnostics/cpu_monitor'
p670
sg18
Nsg19
S'diagnostic_common_diagnostics'
p671
sg21
Nsg22
Nsg23
I0
sg24
S'package_modeler'
p672
sg26
Nsg27
S'/opt/ros/melodic/lib/diagnostic_common_diagnostics/cpu_monitor.py'
p673
sbsS'turtle_tf2/turtle_tf2_listener_wait'
p674
g0
(g9
g2
Ntp675
Rp676
(dp677
g13
Nsg14
Nsg15
I00
sg16
S'turtle_tf2/turtle_tf2_listener_wait'
p678
sg18
Nsg19
S'turtle_tf2'
p679
sg21
Nsg22
Nsg23
I0
sg24
S'package_modeler'
p680
sg26
Nsg27
S'/opt/ros/melodic/lib/turtle_tf2/turtle_tf2_listener_wait.py'
p681
sbsS'laser_filters/generic_laser_filter_node'
p682
g0
(g9
g2
Ntp683
Rp684
(dp685
g13
Nsg14
Nsg15
I00
sg16
S'laser_filters/generic_laser_filter_node'
p686
sg18
Nsg19
S'laser_filters'
p687
sg21
Nsg22
Nsg23
I0
sg24
S'package_modeler'
p688
sg26
Nsg27
S'/opt/ros/melodic/lib/laser_filters/generic_laser_filter_node'
p689
sbsS'image_view/stereo_view'
p690
g0
(g9
g2
Ntp691
Rp692
(dp693
g13
Nsg14
Nsg15
I00
sg16
S'image_view/stereo_view'
p694
sg18
Nsg19
S'image_view'
p695
sg21
Nsg22
Nsg23
I0
sg24
S'package_modeler'
p696
sg26
Nsg27
S'/opt/ros/melodic/lib/image_view/stereo_view'
p697
sbsS'rqt_logger_level/rqt_logger_level'
p698
g0
(g9
g2
Ntp699
Rp700
(dp701
g13
Nsg14
Nsg15
I00
sg16
S'rqt_logger_level/rqt_logger_level'
p702
sg18
Nsg19
S'rqt_logger_level'
p703
sg21
Nsg22
Nsg23
I0
sg24
S'package_modeler'
p704
sg26
Nsg27
S'/opt/ros/melodic/lib/rqt_logger_level/rqt_logger_level'
p705
sbsS'roscpp_tutorials/listener_with_tracked_object'
p706
g0
(g9
g2
Ntp707
Rp708
(dp709
g13
Nsg14
Nsg15
I00
sg16
S'roscpp_tutorials/listener_with_tracked_object'
p710
sg18
Nsg19
S'roscpp_tutorials'
p711
sg21
Nsg22
Nsg23
I0
sg24
S'package_modeler'
p712
sg26
Nsg27
S'/opt/ros/melodic/lib/roscpp_tutorials/listener_with_tracked_object'
p713
sbsS'chris_ros_modeling/model_loader'
p714
g0
(g9
g2
Ntp715
Rp716
(dp717
g13
Nsg14
Nsg15
I00
sg16
S'chris_ros_modeling/model_loader'
p718
sg18
Nsg19
S'chris_ros_modeling'
p719
sg21
Nsg22
Nsg23
I0
sg24
S'package_modeler'
p720
sg26
Nsg27
S'/home/robotics/robotics/src/ros_probe/chris_ros_modeling/bin/model_loader'
p721
sbsS'gazebo_ros/perf'
p722
g0
(g9
g2
Ntp723
Rp724
(dp725
g13
Nsg14
Nsg15
I00
sg16
S'gazebo_ros/perf'
p726
sg18
Nsg19
S'gazebo_ros'
p727
sg21
Nsg22
Nsg23
I0
sg24
S'package_modeler'
p728
sg26
Nsg27
S'/opt/ros/melodic/lib/gazebo_ros/perf'
p729
sbsS'roslisp/make_node_exec'
p730
g0
(g9
g2
Ntp731
Rp732
(dp733
g13
Nsg14
Nsg15
I00
sg16
S'roslisp/make_node_exec'
p734
sg18
Nsg19
S'roslisp'
p735
sg21
Nsg22
Nsg23
I0
sg24
S'package_modeler'
p736
sg26
Nsg27
S'/opt/ros/melodic/share/roslisp/scripts/make_node_exec'
p737
sbsS'urg_c/get_multiecho'
p738
g0
(g9
g2
Ntp739
Rp740
(dp741
g13
Nsg14
Nsg15
I00
sg16
S'urg_c/get_multiecho'
p742
sg18
Nsg19
S'urg_c'
p743
sg21
Nsg22
Nsg23
I0
sg24
S'package_modeler'
p744
sg26
Nsg27
S'/opt/ros/melodic/lib/urg_c/get_multiecho'
p745
sbsS'image_view/disparity_view'
p746
g0
(g9
g2
Ntp747
Rp748
(dp749
g13
Nsg14
Nsg15
I00
sg16
S'image_view/disparity_view'
p750
sg18
Nsg19
S'image_view'
p751
sg21
Nsg22
Nsg23
I0
sg24
S'package_modeler'
p752
sg26
Nsg27
S'/opt/ros/melodic/lib/image_view/disparity_view'
p753
sbsS'gennodejs/gen_nodejs'
p754
g0
(g9
g2
Ntp755
Rp756
(dp757
g13
Nsg14
Nsg15
I00
sg16
S'gennodejs/gen_nodejs'
p758
sg18
Nsg19
S'gennodejs'
p759
sg21
Nsg22
Nsg23
I0
sg24
S'package_modeler'
p760
sg26
Nsg27
S'/opt/ros/melodic/lib/gennodejs/gen_nodejs.py'
p761
sbsS'rosbag/play'
p762
g0
(g9
g2
Ntp763
Rp764
(dp765
g13
Nsg14
Nsg15
I00
sg16
S'rosbag/play'
p766
sg18
Nsg19
S'rosbag'
p767
sg21
Nsg22
Nsg23
I0
sg24
S'package_modeler'
p768
sg26
Nsg27
S'/opt/ros/melodic/lib/rosbag/play'
p769
sbsS'rosbag/record'
p770
g0
(g9
g2
Ntp771
Rp772
(dp773
g13
Nsg14
Nsg15
I00
sg16
S'rosbag/record'
p774
sg18
Nsg19
S'rosbag'
p775
sg21
Nsg22
Nsg23
I0
sg24
S'package_modeler'
p776
sg26
Nsg27
S'/opt/ros/melodic/lib/rosbag/record'
p777
sbsS'urg_c/get_distance_intensity'
p778
g0
(g9
g2
Ntp779
Rp780
(dp781
g13
Nsg14
Nsg15
I00
sg16
S'urg_c/get_distance_intensity'
p782
sg18
Nsg19
S'urg_c'
p783
sg21
Nsg22
Nsg23
I0
sg24
S'package_modeler'
p784
sg26
Nsg27
S'/opt/ros/melodic/lib/urg_c/get_distance_intensity'
p785
sbsS'rqt_graph/rqt_graph'
p786
g0
(g9
g2
Ntp787
Rp788
(dp789
g13
Nsg14
Nsg15
I00
sg16
S'rqt_graph/rqt_graph'
p790
sg18
Nsg19
S'rqt_graph'
p791
sg21
Nsg22
Nsg23
I0
sg24
S'package_modeler'
p792
sg26
Nsg27
S'/opt/ros/melodic/lib/rqt_graph/rqt_graph'
p793
sbsS'image_view/video_recorder'
p794
g0
(g9
g2
Ntp795
Rp796
(dp797
g13
Nsg14
Nsg15
I00
sg16
S'image_view/video_recorder'
p798
sg18
Nsg19
S'image_view'
p799
sg21
Nsg22
Nsg23
I0
sg24
S'package_modeler'
p800
sg26
Nsg27
S'/opt/ros/melodic/lib/image_view/video_recorder'
p801
sbsS'actionlib_tutorials/averaging_client'
p802
g0
(g9
g2
Ntp803
Rp804
(dp805
g13
Nsg14
Nsg15
I00
sg16
S'actionlib_tutorials/averaging_client'
p806
sg18
Nsg19
S'actionlib_tutorials'
p807
sg21
Nsg22
Nsg23
I0
sg24
S'package_modeler'
p808
sg26
Nsg27
S'/opt/ros/melodic/lib/actionlib_tutorials/averaging_client'
p809
sbsS'ecl_errors/ecl_demo_errors'
p810
g0
(g9
g2
Ntp811
Rp812
(dp813
g13
Nsg14
Nsg15
I00
sg16
S'ecl_errors/ecl_demo_errors'
p814
sg18
Nsg19
S'ecl_errors'
p815
sg21
Nsg22
Nsg23
I0
sg24
S'package_modeler'
p816
sg26
Nsg27
S'/opt/ros/melodic/lib/ecl_errors/ecl_demo_errors'
p817
sbsS'roscpp_tutorials/listener_async_spin'
p818
g0
(g9
g2
Ntp819
Rp820
(dp821
g13
Nsg14
Nsg15
I00
sg16
S'roscpp_tutorials/listener_async_spin'
p822
sg18
Nsg19
S'roscpp_tutorials'
p823
sg21
Nsg22
Nsg23
I0
sg24
S'package_modeler'
p824
sg26
Nsg27
S'/opt/ros/melodic/lib/roscpp_tutorials/listener_async_spin'
p825
sbsS'turtle_tf/turtle_tf_broadcaster'
p826
g0
(g9
g2
Ntp827
Rp828
(dp829
g13
Nsg14
Nsg15
I00
sg16
S'turtle_tf/turtle_tf_broadcaster'
p830
sg18
Nsg19
S'turtle_tf'
p831
sg21
Nsg22
Nsg23
I0
sg24
S'package_modeler'
p832
sg26
Nsg27
(lp833
S'/opt/ros/melodic/lib/turtle_tf/turtle_tf_broadcaster.py'
p834
aS'/opt/ros/melodic/lib/turtle_tf/turtle_tf_broadcaster'
p835
asbsS'urg_c/reboot_test'
p836
g0
(g9
g2
Ntp837
Rp838
(dp839
g13
Nsg14
Nsg15
I00
sg16
S'urg_c/reboot_test'
p840
sg18
Nsg19
S'urg_c'
p841
sg21
Nsg22
Nsg23
I0
sg24
S'package_modeler'
p842
sg26
Nsg27
S'/opt/ros/melodic/lib/urg_c/reboot_test'
p843
sbsS'rosunit/pycoverage_to_html'
p844
g0
(g9
g2
Ntp845
Rp846
(dp847
g13
Nsg14
Nsg15
I00
sg16
S'rosunit/pycoverage_to_html'
p848
sg18
Nsg19
S'rosunit'
p849
sg21
Nsg22
Nsg23
I0
sg24
S'package_modeler'
p850
sg26
Nsg27
S'/opt/ros/melodic/share/rosunit/scripts/pycoverage_to_html.py'
p851
sbsS'diagnostic_aggregator/aggregator_node'
p852
g0
(g9
g2
Ntp853
Rp854
(dp855
g13
Nsg14
Nsg15
I00
sg16
S'diagnostic_aggregator/aggregator_node'
p856
sg18
Nsg19
S'diagnostic_aggregator'
p857
sg21
Nsg22
Nsg23
I0
sg24
S'package_modeler'
p858
sg26
Nsg27
S'/opt/ros/melodic/lib/diagnostic_aggregator/aggregator_node'
p859
sbsS'turtle_actionlib/shape_server'
p860
g0
(g9
g2
Ntp861
Rp862
(dp863
g13
Nsg14
Nsg15
I00
sg16
S'turtle_actionlib/shape_server'
p864
sg18
Nsg19
S'turtle_actionlib'
p865
sg21
Nsg22
Nsg23
I0
sg24
S'package_modeler'
p866
sg26
Nsg27
S'/opt/ros/melodic/lib/turtle_actionlib/shape_server'
p867
sbsS'urg_c/get_multiecho_intensity'
p868
g0
(g9
g2
Ntp869
Rp870
(dp871
g13
Nsg14
Nsg15
I00
sg16
S'urg_c/get_multiecho_intensity'
p872
sg18
Nsg19
S'urg_c'
p873
sg21
Nsg22
Nsg23
I0
sg24
S'package_modeler'
p874
sg26
Nsg27
S'/opt/ros/melodic/lib/urg_c/get_multiecho_intensity'
p875
sbsS'roscpp_tutorials/babbler'
p876
g0
(g9
g2
Ntp877
Rp878
(dp879
g13
Nsg14
Nsg15
I00
sg16
S'roscpp_tutorials/babbler'
p880
sg18
Nsg19
S'roscpp_tutorials'
p881
sg21
Nsg22
Nsg23
I0
sg24
S'package_modeler'
p882
sg26
Nsg27
S'/opt/ros/melodic/lib/roscpp_tutorials/babbler'
p883
sbsS'topic_tools/mux'
p884
g0
(g9
g2
Ntp885
Rp886
(dp887
g13
Nsg14
Nsg15
I00
sg16
S'topic_tools/mux'
p888
sg18
Nsg19
S'topic_tools'
p889
sg21
Nsg22
Nsg23
I0
sg24
S'package_modeler'
p890
sg26
Nsg27
S'/opt/ros/melodic/lib/topic_tools/mux'
p891
sbsS'rostopic/rostopic'
p892
g0
(g9
g2
Ntp893
Rp894
(dp895
g13
Nsg14
Nsg15
I00
sg16
S'rostopic/rostopic'
p896
sg18
Nsg19
S'rostopic'
p897
sg21
Nsg22
Nsg23
I0
sg24
S'package_modeler'
p898
sg26
Nsg27
S'/opt/ros/melodic/lib/rostopic/rostopic'
p899
sbsS'roscpp_tutorials/listener_with_userdata'
p900
g0
(g9
g2
Ntp901
Rp902
(dp903
g13
Nsg14
Nsg15
I00
sg16
S'roscpp_tutorials/listener_with_userdata'
p904
sg18
Nsg19
S'roscpp_tutorials'
p905
sg21
Nsg22
Nsg23
I0
sg24
S'package_modeler'
p906
sg26
Nsg27
S'/opt/ros/melodic/lib/roscpp_tutorials/listener_with_userdata'
p907
sbsS'topic_tools/mux_delete'
p908
g0
(g9
g2
Ntp909
Rp910
(dp911
g13
Nsg14
Nsg15
I00
sg16
S'topic_tools/mux_delete'
p912
sg18
Nsg19
S'topic_tools'
p913
sg21
Nsg22
Nsg23
I0
sg24
S'package_modeler'
p914
sg26
Nsg27
S'/opt/ros/melodic/lib/topic_tools/mux_delete'
p915
sbsS'rosbag/bagsort'
p916
g0
(g9
g2
Ntp917
Rp918
(dp919
g13
Nsg14
Nsg15
I00
sg16
S'rosbag/bagsort'
p920
sg18
Nsg19
S'rosbag'
p921
sg21
Nsg22
Nsg23
I0
sg24
S'package_modeler'
p922
sg26
Nsg27
S'/opt/ros/melodic/lib/rosbag/bagsort.py'
p923
sbsS'urg_node/urg_node'
p924
g0
(g9
g2
Ntp925
Rp926
(dp927
g13
Nsg14
Nsg15
I00
sg16
S'urg_node/urg_node'
p928
sg18
Nsg19
S'urg_node'
p929
sg21
Nsg22
Nsg23
I0
sg24
S'package_modeler'
p930
sg26
Nsg27
S'/opt/ros/melodic/lib/urg_node/urg_node'
p931
sbsS'rqt_web/rqt_web'
p932
g0
(g9
g2
Ntp933
Rp934
(dp935
g13
Nsg14
Nsg15
I00
sg16
S'rqt_web/rqt_web'
p936
sg18
Nsg19
S'rqt_web'
p937
sg21
Nsg22
Nsg23
I0
sg24
S'package_modeler'
p938
sg26
Nsg27
S'/opt/ros/melodic/lib/rqt_web/rqt_web'
p939
sbsS'tf/view_frames'
p940
g0
(g9
g2
Ntp941
Rp942
(dp943
g13
Nsg14
Nsg15
I00
sg16
S'tf/view_frames'
p944
sg18
Nsg19
S'tf'
p945
sg21
Nsg22
Nsg23
I0
sg24
S'package_modeler'
p946
sg26
Nsg27
S'/opt/ros/melodic/lib/tf/view_frames'
p947
sbsS'camera_calibration/cameracheck'
p948
g0
(g9
g2
Ntp949
Rp950
(dp951
g13
Nsg14
Nsg15
I00
sg16
S'camera_calibration/cameracheck'
p952
sg18
Nsg19
S'camera_calibration'
p953
sg21
Nsg22
Nsg23
I0
sg24
S'package_modeler'
p954
sg26
Nsg27
S'/opt/ros/melodic/lib/camera_calibration/cameracheck.py'
p955
sbsS'gazebo_plugins/camera_synchronizer'
p956
g0
(g9
g2
Ntp957
Rp958
(dp959
g13
Nsg14
Nsg15
I00
sg16
S'gazebo_plugins/camera_synchronizer'
p960
sg18
Nsg19
S'gazebo_plugins'
p961
sg21
Nsg22
Nsg23
I0
sg24
S'package_modeler'
p962
sg26
Nsg27
S'/opt/ros/melodic/lib/gazebo_plugins/camera_synchronizer'
p963
sbsS'chris_scripts/record_desktop'
p964
g0
(g9
g2
Ntp965
Rp966
(dp967
g13
Nsg14
Nsg15
I00
sg16
S'chris_scripts/record_desktop'
p968
sg18
Nsg19
S'chris_scripts'
p969
sg21
Nsg22
Nsg23
I0
sg24
S'package_modeler'
p970
sg26
Nsg27
S'/home/robotics/robotics/src/chris_scripts/scripts/helper/record_desktop.sh'
p971
sbsS'dynamic_reconfigure/reconfigure_gui'
p972
g0
(g9
g2
Ntp973
Rp974
(dp975
g13
Nsg14
Nsg15
I00
sg16
S'dynamic_reconfigure/reconfigure_gui'
p976
sg18
Nsg19
S'dynamic_reconfigure'
p977
sg21
Nsg22
Nsg23
I0
sg24
S'package_modeler'
p978
sg26
Nsg27
S'/opt/ros/melodic/lib/dynamic_reconfigure/reconfigure_gui'
p979
sbsS'dynamic_reconfigure/dynparam'
p980
g0
(g9
g2
Ntp981
Rp982
(dp983
g13
Nsg14
Nsg15
I00
sg16
S'dynamic_reconfigure/dynparam'
p984
sg18
Nsg19
S'dynamic_reconfigure'
p985
sg21
Nsg22
Nsg23
I0
sg24
S'package_modeler'
p986
sg26
Nsg27
S'/opt/ros/melodic/lib/dynamic_reconfigure/dynparam'
p987
sbsS'ecl_time_lite/demo_time_functions'
p988
g0
(g9
g2
Ntp989
Rp990
(dp991
g13
Nsg14
Nsg15
I00
sg16
S'ecl_time_lite/demo_time_functions'
p992
sg18
Nsg19
S'ecl_time_lite'
p993
sg21
Nsg22
Nsg23
I0
sg24
S'package_modeler'
p994
sg26
Nsg27
S'/opt/ros/melodic/lib/ecl_time_lite/demo_time_functions'
p995
sbsS'rqt_reconfigure/rqt_reconfigure'
p996
g0
(g9
g2
Ntp997
Rp998
(dp999
g13
Nsg14
Nsg15
I00
sg16
S'rqt_reconfigure/rqt_reconfigure'
p1000
sg18
Nsg19
S'rqt_reconfigure'
p1001
sg21
Nsg22
Nsg23
I0
sg24
S'package_modeler'
p1002
sg26
Nsg27
S'/opt/ros/melodic/lib/rqt_reconfigure/rqt_reconfigure'
p1003
sbsS'diagnostic_analysis/export_csv'
p1004
g0
(g9
g2
Ntp1005
Rp1006
(dp1007
g13
Nsg14
Nsg15
I00
sg16
S'diagnostic_analysis/export_csv'
p1008
sg18
Nsg19
S'diagnostic_analysis'
p1009
sg21
Nsg22
Nsg23
I0
sg24
S'package_modeler'
p1010
sg26
Nsg27
S'/opt/ros/melodic/lib/diagnostic_analysis/export_csv.py'
p1011
sbsS'roslisp/test-gensrv-lisp'
p1012
g0
(g9
g2
Ntp1013
Rp1014
(dp1015
g13
Nsg14
Nsg15
I00
sg16
S'roslisp/test-gensrv-lisp'
p1016
sg18
Nsg19
S'roslisp'
p1017
sg21
Nsg22
Nsg23
I0
sg24
S'package_modeler'
p1018
sg26
Nsg27
S'/opt/ros/melodic/share/roslisp/scripts/test-gensrv-lisp'
p1019
sbsS'tf/tf_echo'
p1020
g0
(g9
g2
Ntp1021
Rp1022
(dp1023
g13
Nsg14
Nsg15
I00
sg16
S'tf/tf_echo'
p1024
sg18
Nsg19
S'tf'
p1025
sg21
Nsg22
Nsg23
I0
sg24
S'package_modeler'
p1026
sg26
Nsg27
S'/opt/ros/melodic/lib/tf/tf_echo'
p1027
sbsS'rosunit/clean_junit_xml'
p1028
g0
(g9
g2
Ntp1029
Rp1030
(dp1031
g13
Nsg14
Nsg15
I00
sg16
S'rosunit/clean_junit_xml'
p1032
sg18
Nsg19
S'rosunit'
p1033
sg21
Nsg22
Nsg23
I0
sg24
S'package_modeler'
p1034
sg26
Nsg27
S'/opt/ros/melodic/share/rosunit/scripts/clean_junit_xml.py'
p1035
sbsS'rqt_shell/rqt_shell'
p1036
g0
(g9
g2
Ntp1037
Rp1038
(dp1039
g13
Nsg14
Nsg15
I00
sg16
S'rqt_shell/rqt_shell'
p1040
sg18
Nsg19
S'rqt_shell'
p1041
sg21
Nsg22
Nsg23
I0
sg24
S'package_modeler'
p1042
sg26
Nsg27
S'/opt/ros/melodic/lib/rqt_shell/rqt_shell'
p1043
sbsS'rqt_service_caller/rqt_service_caller'
p1044
g0
(g9
g2
Ntp1045
Rp1046
(dp1047
g13
Nsg14
Nsg15
I00
sg16
S'rqt_service_caller/rqt_service_caller'
p1048
sg18
Nsg19
S'rqt_service_caller'
p1049
sg21
Nsg22
Nsg23
I0
sg24
S'package_modeler'
p1050
sg26
Nsg27
S'/opt/ros/melodic/lib/rqt_service_caller/rqt_service_caller'
p1051
sbsS'controller_manager/controller_manager'
p1052
g0
(g9
g2
Ntp1053
Rp1054
(dp1055
g13
Nsg14
Nsg15
I00
sg16
S'controller_manager/controller_manager'
p1056
sg18
Nsg19
S'controller_manager'
p1057
sg21
Nsg22
Nsg23
I0
sg24
S'package_modeler'
p1058
sg26
Nsg27
S'/opt/ros/melodic/lib/controller_manager/controller_manager'
p1059
sbsS'pcl_ros/pcd_to_pointcloud'
p1060
g0
(g9
g2
Ntp1061
Rp1062
(dp1063
g13
Nsg14
Nsg15
I00
sg16
S'pcl_ros/pcd_to_pointcloud'
p1064
sg18
Nsg19
S'pcl_ros'
p1065
sg21
Nsg22
Nsg23
I0
sg24
S'package_modeler'
p1066
sg26
Nsg27
S'/opt/ros/melodic/lib/pcl_ros/pcd_to_pointcloud'
p1067
sbsS'interactive_marker_tutorials/cube'
p1068
g0
(g9
g2
Ntp1069
Rp1070
(dp1071
g13
Nsg14
Nsg15
I00
sg16
S'interactive_marker_tutorials/cube'
p1072
sg18
Nsg19
S'interactive_marker_tutorials'
p1073
sg21
Nsg22
Nsg23
I0
sg24
S'package_modeler'
p1074
sg26
Nsg27
(lp1075
S'/opt/ros/melodic/lib/interactive_marker_tutorials/cube.py'
p1076
aS'/opt/ros/melodic/lib/interactive_marker_tutorials/cube'
p1077
asbsS'rosbag/fix_md5sums'
p1078
g0
(g9
g2
Ntp1079
Rp1080
(dp1081
g13
Nsg14
Nsg15
I00
sg16
S'rosbag/fix_md5sums'
p1082
sg18
Nsg19
S'rosbag'
p1083
sg21
Nsg22
Nsg23
I0
sg24
S'package_modeler'
p1084
sg26
Nsg27
S'/opt/ros/melodic/lib/rosbag/fix_md5sums.py'
p1085
sbsS'diagnostic_common_diagnostics/tf_monitor'
p1086
g0
(g9
g2
Ntp1087
Rp1088
(dp1089
g13
Nsg14
Nsg15
I00
sg16
S'diagnostic_common_diagnostics/tf_monitor'
p1090
sg18
Nsg19
S'diagnostic_common_diagnostics'
p1091
sg21
Nsg22
Nsg23
I0
sg24
S'package_modeler'
p1092
sg26
Nsg27
S'/opt/ros/melodic/lib/diagnostic_common_diagnostics/tf_monitor.py'
p1093
sbsS'actionlib/axserver'
p1094
g0
(g9
g2
Ntp1095
Rp1096
(dp1097
g13
Nsg14
Nsg15
I00
sg16
S'actionlib/axserver'
p1098
sg18
Nsg19
S'actionlib'
p1099
sg21
Nsg22
Nsg23
I0
sg24
S'package_modeler'
p1100
sg26
Nsg27
S'/opt/ros/melodic/lib/actionlib/axserver.py'
p1101
sbsS'roscpp_tutorials/listener_class'
p1102
g0
(g9
g2
Ntp1103
Rp1104
(dp1105
g13
Nsg14
Nsg15
I00
sg16
S'roscpp_tutorials/listener_class'
p1106
sg18
Nsg19
S'roscpp_tutorials'
p1107
sg21
Nsg22
Nsg23
I0
sg24
S'package_modeler'
p1108
sg26
Nsg27
S'/opt/ros/melodic/lib/roscpp_tutorials/listener_class'
p1109
sbsS'topic_tools/drop'
p1110
g0
(g9
g2
Ntp1111
Rp1112
(dp1113
g13
Nsg14
Nsg15
I00
sg16
S'topic_tools/drop'
p1114
sg18
Nsg19
S'topic_tools'
p1115
sg21
Nsg22
Nsg23
I0
sg24
S'package_modeler'
p1116
sg26
Nsg27
S'/opt/ros/melodic/lib/topic_tools/drop'
p1117
sbsS'turtle_tf2/turtle_tf2_broadcaster'
p1118
g0
(g9
g2
Ntp1119
Rp1120
(dp1121
g13
Nsg14
Nsg15
I00
sg16
S'turtle_tf2/turtle_tf2_broadcaster'
p1122
sg18
Nsg19
S'turtle_tf2'
p1123
sg21
Nsg22
Nsg23
I0
sg24
S'package_modeler'
p1124
sg26
Nsg27
(lp1125
S'/opt/ros/melodic/lib/turtle_tf2/turtle_tf2_broadcaster.py'
p1126
aS'/opt/ros/melodic/lib/turtle_tf2/turtle_tf2_broadcaster'
p1127
asbsS'nodelet/nodelet'
p1128
g0
(g9
g2
Ntp1129
Rp1130
(dp1131
g13
Nsg14
Nsg15
I00
sg16
S'nodelet/nodelet'
p1132
sg18
Nsg19
S'nodelet'
p1133
sg21
Nsg22
Nsg23
I0
sg24
S'package_modeler'
p1134
sg26
Nsg27
S'/opt/ros/melodic/lib/nodelet/nodelet'
p1135
sbsS'tf2_ros/static_transform_publisher'
p1136
g0
(g9
g2
Ntp1137
Rp1138
(dp1139
g13
Nsg14
Nsg15
I00
sg16
S'tf2_ros/static_transform_publisher'
p1140
sg18
Nsg19
S'tf2_ros'
p1141
sg21
Nsg22
Nsg23
I0
sg24
S'package_modeler'
p1142
sg26
Nsg27
S'/opt/ros/melodic/lib/tf2_ros/static_transform_publisher'
p1143
sbsS'map_server/map_saver'
p1144
g0
(g9
g2
Ntp1145
Rp1146
(dp1147
g13
Nsg14
Nsg15
I00
sg16
S'map_server/map_saver'
p1148
sg18
Nsg19
S'map_server'
p1149
sg21
Nsg22
Nsg23
I0
sg24
S'package_modeler'
p1150
sg26
Nsg27
S'/opt/ros/melodic/lib/map_server/map_saver'
p1151
sbsS'rosout/rosout'
p1152
g0
(g9
g2
Ntp1153
Rp1154
(dp1155
g13
Nsg14
Nsg15
I00
sg16
S'rosout/rosout'
p1156
sg18
Nsg19
S'rosout'
p1157
sg21
Nsg22
Nsg23
I0
sg24
S'package_modeler'
p1158
sg26
Nsg27
S'/opt/ros/melodic/lib/rosout/rosout'
p1159
sbsS'cartographer_ros/cartographer_rosbag_validate'
p1160
g0
(g9
g2
Ntp1161
Rp1162
(dp1163
g13
Nsg14
Nsg15
I00
sg16
S'cartographer_ros/cartographer_rosbag_validate'
p1164
sg18
Nsg19
S'cartographer_ros'
p1165
sg21
Nsg22
Nsg23
I0
sg24
S'package_modeler'
p1166
sg26
Nsg27
S'/opt/ros/melodic/lib/cartographer_ros/cartographer_rosbag_validate'
p1167
sbsS'rosbag/bag2png'
p1168
g0
(g9
g2
Ntp1169
Rp1170
(dp1171
g13
Nsg14
Nsg15
I00
sg16
S'rosbag/bag2png'
p1172
sg18
Nsg19
S'rosbag'
p1173
sg21
Nsg22
Nsg23
I0
sg24
S'package_modeler'
p1174
sg26
Nsg27
S'/opt/ros/melodic/lib/rosbag/bag2png.py'
p1175
sbsS'robot_upstart/uninstall'
p1176
g0
(g9
g2
Ntp1177
Rp1178
(dp1179
g13
Nsg14
Nsg15
I00
sg16
S'robot_upstart/uninstall'
p1180
sg18
Nsg19
S'robot_upstart'
p1181
sg21
Nsg22
Nsg23
I0
sg24
S'package_modeler'
p1182
sg26
Nsg27
S'/opt/ros/melodic/lib/robot_upstart/uninstall'
p1183
sbsS'image_transport/republish'
p1184
g0
(g9
g2
Ntp1185
Rp1186
(dp1187
g13
Nsg14
Nsg15
I00
sg16
S'image_transport/republish'
p1188
sg18
Nsg19
S'image_transport'
p1189
sg21
Nsg22
Nsg23
I0
sg24
S'package_modeler'
p1190
sg26
Nsg27
S'/opt/ros/melodic/lib/image_transport/republish'
p1191
sbsS'rqt_robot_monitor/rqt_robot_monitor'
p1192
g0
(g9
g2
Ntp1193
Rp1194
(dp1195
g13
Nsg14
Nsg15
I00
sg16
S'rqt_robot_monitor/rqt_robot_monitor'
p1196
sg18
Nsg19
S'rqt_robot_monitor'
p1197
sg21
Nsg22
Nsg23
I0
sg24
S'package_modeler'
p1198
sg26
Nsg27
S'/opt/ros/melodic/lib/rqt_robot_monitor/rqt_robot_monitor'
p1199
sbsS'rqt_pose_view/rqt_pose_view'
p1200
g0
(g9
g2
Ntp1201
Rp1202
(dp1203
g13
Nsg14
Nsg15
I00
sg16
S'rqt_pose_view/rqt_pose_view'
p1204
sg18
Nsg19
S'rqt_pose_view'
p1205
sg21
Nsg22
Nsg23
I0
sg24
S'package_modeler'
p1206
sg26
Nsg27
S'/opt/ros/melodic/lib/rqt_pose_view/rqt_pose_view'
p1207
sbsS'roslint/cpplint'
p1208
g0
(g9
g2
Ntp1209
Rp1210
(dp1211
g13
Nsg14
Nsg15
I00
sg16
S'roslint/cpplint'
p1212
sg18
Nsg19
S'roslint'
p1213
sg21
Nsg22
Nsg23
I0
sg24
S'package_modeler'
p1214
sg26
Nsg27
S'/opt/ros/melodic/lib/roslint/cpplint'
p1215
sbsS'nmea_navsat_driver/nmea_topic_serial_reader'
p1216
g0
(g9
g2
Ntp1217
Rp1218
(dp1219
g13
Nsg14
Nsg15
I00
sg16
S'nmea_navsat_driver/nmea_topic_serial_reader'
p1220
sg18
Nsg19
S'nmea_navsat_driver'
p1221
sg21
Nsg22
Nsg23
I0
sg24
S'package_modeler'
p1222
sg26
Nsg27
S'/opt/ros/melodic/lib/nmea_navsat_driver/nmea_topic_serial_reader'
p1223
sbsS'laser_proc/laser_proc'
p1224
g0
(g9
g2
Ntp1225
Rp1226
(dp1227
g13
Nsg14
Nsg15
I00
sg16
S'laser_proc/laser_proc'
p1228
sg18
Nsg19
S'laser_proc'
p1229
sg21
Nsg22
Nsg23
I0
sg24
S'package_modeler'
p1230
sg26
Nsg27
S'/opt/ros/melodic/lib/laser_proc/laser_proc'
p1231
sbsS'rosbag/fix_msg_defs'
p1232
g0
(g9
g2
Ntp1233
Rp1234
(dp1235
g13
Nsg14
Nsg15
I00
sg16
S'rosbag/fix_msg_defs'
p1236
sg18
Nsg19
S'rosbag'
p1237
sg21
Nsg22
Nsg23
I0
sg24
S'package_modeler'
p1238
sg26
Nsg27
S'/opt/ros/melodic/lib/rosbag/fix_msg_defs.py'
p1239
sbsS'rqt_nav_view/rqt_nav_view'
p1240
g0
(g9
g2
Ntp1241
Rp1242
(dp1243
g13
Nsg14
Nsg15
I00
sg16
S'rqt_nav_view/rqt_nav_view'
p1244
sg18
Nsg19
S'rqt_nav_view'
p1245
sg21
Nsg22
Nsg23
I0
sg24
S'package_modeler'
p1246
sg26
Nsg27
S'/opt/ros/melodic/lib/rqt_nav_view/rqt_nav_view'
p1247
sbsS'urg_c/get_distance'
p1248
g0
(g9
g2
Ntp1249
Rp1250
(dp1251
g13
Nsg14
Nsg15
I00
sg16
S'urg_c/get_distance'
p1252
sg18
Nsg19
S'urg_c'
p1253
sg21
Nsg22
Nsg23
I0
sg24
S'package_modeler'
p1254
sg26
Nsg27
S'/opt/ros/melodic/lib/urg_c/get_distance'
p1255
sbsS'robot_upstart/mklaunch'
p1256
g0
(g9
g2
Ntp1257
Rp1258
(dp1259
g13
Nsg14
Nsg15
I00
sg16
S'robot_upstart/mklaunch'
p1260
sg18
Nsg19
S'robot_upstart'
p1261
sg21
Nsg22
Nsg23
I0
sg24
S'package_modeler'
p1262
sg26
Nsg27
S'/opt/ros/melodic/lib/robot_upstart/mklaunch'
p1263
sbsS'turtle_tf2/turtle_tf2_listener'
p1264
g0
(g9
g2
Ntp1265
Rp1266
(dp1267
g13
Nsg14
Nsg15
I00
sg16
S'turtle_tf2/turtle_tf2_listener'
p1268
sg18
Nsg19
S'turtle_tf2'
p1269
sg21
Nsg22
Nsg23
I0
sg24
S'package_modeler'
p1270
sg26
Nsg27
(lp1271
S'/opt/ros/melodic/lib/turtle_tf2/turtle_tf2_listener.py'
p1272
aS'/opt/ros/melodic/lib/turtle_tf2/turtle_tf2_listener'
p1273
asbsS'cartographer_ros/cartographer_dev_trajectory_comparison'
p1274
g0
(g9
g2
Ntp1275
Rp1276
(dp1277
g13
Nsg14
Nsg15
I00
sg16
S'cartographer_ros/cartographer_dev_trajectory_comparison'
p1278
sg18
Nsg19
S'cartographer_ros'
p1279
sg21
Nsg22
Nsg23
I0
sg24
S'package_modeler'
p1280
sg26
Nsg27
S'/opt/ros/melodic/lib/cartographer_ros/cartographer_dev_trajectory_comparison'
p1281
sbsS'turtle_tf/turtle_tf_listener_wait'
p1282
g0
(g9
g2
Ntp1283
Rp1284
(dp1285
g13
Nsg14
Nsg15
I00
sg16
S'turtle_tf/turtle_tf_listener_wait'
p1286
sg18
Nsg19
S'turtle_tf'
p1287
sg21
Nsg22
Nsg23
I0
sg24
S'package_modeler'
p1288
sg26
Nsg27
S'/opt/ros/melodic/lib/turtle_tf/turtle_tf_listener_wait.py'
p1289
sbsS'nodelet/declared_nodelets'
p1290
g0
(g9
g2
Ntp1291
Rp1292
(dp1293
g13
Nsg14
Nsg15
I00
sg16
S'nodelet/declared_nodelets'
p1294
sg18
Nsg19
S'nodelet'
p1295
sg21
Nsg22
Nsg23
I0
sg24
S'package_modeler'
p1296
sg26
Nsg27
S'/opt/ros/melodic/lib/nodelet/declared_nodelets'
p1297
sbsS'geneus/gen_eus'
p1298
g0
(g9
g2
Ntp1299
Rp1300
(dp1301
g13
Nsg14
Nsg15
I00
sg16
S'geneus/gen_eus'
p1302
sg18
Nsg19
S'geneus'
p1303
sg21
Nsg22
Nsg23
I0
sg24
S'package_modeler'
p1304
sg26
Nsg27
S'/opt/ros/melodic/lib/geneus/gen_eus.py'
p1305
sbsS'cartographer_ros/cartographer_occupancy_grid_node'
p1306
g0
(g9
g2
Ntp1307
Rp1308
(dp1309
g13
Nsg14
Nsg15
I00
sg16
S'cartographer_ros/cartographer_occupancy_grid_node'
p1310
sg18
Nsg19
S'cartographer_ros'
p1311
sg21
Nsg22
Nsg23
I0
sg24
S'package_modeler'
p1312
sg26
Nsg27
S'/opt/ros/melodic/lib/cartographer_ros/cartographer_occupancy_grid_node'
p1313
sbsS'chris_scripts/plot_bag_odom'
p1314
g0
(g9
g2
Ntp1315
Rp1316
(dp1317
g13
Nsg14
Nsg15
I00
sg16
S'chris_scripts/plot_bag_odom'
p1318
sg18
Nsg19
S'chris_scripts'
p1319
sg21
Nsg22
Nsg23
I0
sg24
S'package_modeler'
p1320
sg26
Nsg27
S'/home/robotics/robotics/src/chris_scripts/scripts/helper/plot_bag_odom.py'
p1321
sbsS'pcl_ros/convert_pcd_to_image'
p1322
g0
(g9
g2
Ntp1323
Rp1324
(dp1325
g13
Nsg14
Nsg15
I00
sg16
S'pcl_ros/convert_pcd_to_image'
p1326
sg18
Nsg19
S'pcl_ros'
p1327
sg21
Nsg22
Nsg23
I0
sg24
S'package_modeler'
p1328
sg26
Nsg27
S'/opt/ros/melodic/lib/pcl_ros/convert_pcd_to_image'
p1329
sbsS'robot_upstart/install'
p1330
g0
(g9
g2
Ntp1331
Rp1332
(dp1333
g13
Nsg14
Nsg15
I00
sg16
S'robot_upstart/install'
p1334
sg18
Nsg19
S'robot_upstart'
p1335
sg21
Nsg22
Nsg23
I0
sg24
S'package_modeler'
p1336
sg26
Nsg27
S'/opt/ros/melodic/lib/robot_upstart/install'
p1337
sbsS'tf/static_transform_publisher'
p1338
g0
(g9
g2
Ntp1339
Rp1340
(dp1341
g13
Nsg14
Nsg15
I00
sg16
S'tf/static_transform_publisher'
p1342
sg18
Nsg19
S'tf'
p1343
sg21
Nsg22
Nsg23
I0
sg24
S'package_modeler'
p1344
sg26
Nsg27
S'/opt/ros/melodic/lib/tf/static_transform_publisher'
p1345
sbsS'rqt_gui/rqt_gui'
p1346
g0
(g9
g2
Ntp1347
Rp1348
(dp1349
g13
(dp1350
sg14
(dp1351
sg15
I01
sg16
S'rqt_gui/rqt_gui'
p1352
sg18
(dp1353
sg19
S'rqt_gui'
p1354
sg21
(dp1355
sg22
(dp1356
S'command'
p1357
S'std_msgs/Float64'
p1358
ssg23
I1
sg24
(lp1359
S'package_modeler'
p1360
aS'ros_snapshot'
p1361
asg26
(dp1362
S'state'
p1363
S'control_msgs/JointTrajectoryControllerState'
p1364
sS'clock'
p1365
S'rosgraph_msgs/Clock'
p1366
ssg27
S'/opt/ros/melodic/lib/rqt_gui/rqt_gui'
p1367
sbsS'cartographer_ros/cartographer_dev_rosbag_publisher'
p1368
g0
(g9
g2
Ntp1369
Rp1370
(dp1371
g13
Nsg14
Nsg15
I00
sg16
S'cartographer_ros/cartographer_dev_rosbag_publisher'
p1372
sg18
Nsg19
S'cartographer_ros'
p1373
sg21
Nsg22
Nsg23
I0
sg24
S'package_modeler'
p1374
sg26
Nsg27
S'/opt/ros/melodic/lib/cartographer_ros/cartographer_dev_rosbag_publisher'
p1375
sbsS'ar_track_alvar/individualMarkersNoKinect'
p1376
g0
(g9
g2
Ntp1377
Rp1378
(dp1379
g13
Nsg14
Nsg15
I00
sg16
S'ar_track_alvar/individualMarkersNoKinect'
p1380
sg18
Nsg19
S'ar_track_alvar'
p1381
sg21
Nsg22
Nsg23
I0
sg24
S'package_modeler'
p1382
sg26
Nsg27
S'/opt/ros/melodic/lib/ar_track_alvar/individualMarkersNoKinect'
p1383
sbsS'roscpp_tutorials/listener_threaded_spin'
p1384
g0
(g9
g2
Ntp1385
Rp1386
(dp1387
g13
Nsg14
Nsg15
I00
sg16
S'roscpp_tutorials/listener_threaded_spin'
p1388
sg18
Nsg19
S'roscpp_tutorials'
p1389
sg21
Nsg22
Nsg23
I0
sg24
S'package_modeler'
p1390
sg26
Nsg27
S'/opt/ros/melodic/lib/roscpp_tutorials/listener_threaded_spin'
p1391
sbsS'ar_track_alvar/createMarker'
p1392
g0
(g9
g2
Ntp1393
Rp1394
(dp1395
g13
Nsg14
Nsg15
I00
sg16
S'ar_track_alvar/createMarker'
p1396
sg18
Nsg19
S'ar_track_alvar'
p1397
sg21
Nsg22
Nsg23
I0
sg24
S'package_modeler'
p1398
sg26
Nsg27
S'/opt/ros/melodic/lib/ar_track_alvar/createMarker'
p1399
sbsS'diagnostic_common_diagnostics/sensors_monitor'
p1400
g0
(g9
g2
Ntp1401
Rp1402
(dp1403
g13
Nsg14
Nsg15
I00
sg16
S'diagnostic_common_diagnostics/sensors_monitor'
p1404
sg18
Nsg19
S'diagnostic_common_diagnostics'
p1405
sg21
Nsg22
Nsg23
I0
sg24
S'package_modeler'
p1406
sg26
Nsg27
S'/opt/ros/melodic/lib/diagnostic_common_diagnostics/sensors_monitor.py'
p1407
sbsS'chris_scripts/plot_turtlebot_bag'
p1408
g0
(g9
g2
Ntp1409
Rp1410
(dp1411
g13
Nsg14
Nsg15
I00
sg16
S'chris_scripts/plot_turtlebot_bag'
p1412
sg18
Nsg19
S'chris_scripts'
p1413
sg21
Nsg22
Nsg23
I0
sg24
S'package_modeler'
p1414
sg26
Nsg27
S'/home/robotics/robotics/src/chris_scripts/scripts/helper/plot_turtlebot_bag.py'
p1415
sbsS'gazebo_ros/libcommon'
p1416
g0
(g9
g2
Ntp1417
Rp1418
(dp1419
g13
Nsg14
Nsg15
I00
sg16
S'gazebo_ros/libcommon'
p1420
sg18
Nsg19
S'gazebo_ros'
p1421
sg21
Nsg22
Nsg23
I0
sg24
S'package_modeler'
p1422
sg26
Nsg27
S'/opt/ros/melodic/lib/gazebo_ros/libcommon.sh'
p1423
sbsS'costmap_2d/costmap_2d_markers'
p1424
g0
(g9
g2
Ntp1425
Rp1426
(dp1427
g13
Nsg14
Nsg15
I00
sg16
S'costmap_2d/costmap_2d_markers'
p1428
sg18
Nsg19
S'costmap_2d'
p1429
sg21
Nsg22
Nsg23
I0
sg24
S'package_modeler'
p1430
sg26
Nsg27
S'/opt/ros/melodic/lib/costmap_2d/costmap_2d_markers'
p1431
sbsS'cartographer_ros/cartographer_assets_writer'
p1432
g0
(g9
g2
Ntp1433
Rp1434
(dp1435
g13
Nsg14
Nsg15
I00
sg16
S'cartographer_ros/cartographer_assets_writer'
p1436
sg18
Nsg19
S'cartographer_ros'
p1437
sg21
Nsg22
Nsg23
I0
sg24
S'package_modeler'
p1438
sg26
Nsg27
S'/opt/ros/melodic/lib/cartographer_ros/cartographer_assets_writer'
p1439
sbsS'rqt_top/rqt_top'
p1440
g0
(g9
g2
Ntp1441
Rp1442
(dp1443
g13
Nsg14
Nsg15
I00
sg16
S'rqt_top/rqt_top'
p1444
sg18
Nsg19
S'rqt_top'
p1445
sg21
Nsg22
Nsg23
I0
sg24
S'package_modeler'
p1446
sg26
Nsg27
S'/opt/ros/melodic/lib/rqt_top/rqt_top'
p1447
sbsS'urg_c/sync_time_stamp'
p1448
g0
(g9
g2
Ntp1449
Rp1450
(dp1451
g13
Nsg14
Nsg15
I00
sg16
S'urg_c/sync_time_stamp'
p1452
sg18
Nsg19
S'urg_c'
p1453
sg21
Nsg22
Nsg23
I0
sg24
S'package_modeler'
p1454
sg26
Nsg27
S'/opt/ros/melodic/lib/urg_c/sync_time_stamp'
p1455
sbsS'polled_camera/poller'
p1456
g0
(g9
g2
Ntp1457
Rp1458
(dp1459
g13
Nsg14
Nsg15
I00
sg16
S'polled_camera/poller'
p1460
sg18
Nsg19
S'polled_camera'
p1461
sg21
Nsg22
Nsg23
I0
sg24
S'package_modeler'
p1462
sg26
Nsg27
S'/opt/ros/melodic/lib/polled_camera/poller'
p1463
sbsS'tf/tf_monitor'
p1464
g0
(g9
g2
Ntp1465
Rp1466
(dp1467
g13
Nsg14
Nsg15
I00
sg16
S'tf/tf_monitor'
p1468
sg18
Nsg19
S'tf'
p1469
sg21
Nsg22
Nsg23
I0
sg24
S'package_modeler'
p1470
sg26
Nsg27
S'/opt/ros/melodic/lib/tf/tf_monitor'
p1471
sbsS'turtlesim/mimic'
p1472
g0
(g9
g2
Ntp1473
Rp1474
(dp1475
g13
Nsg14
Nsg15
I00
sg16
S'turtlesim/mimic'
p1476
sg18
Nsg19
S'turtlesim'
p1477
sg21
Nsg22
Nsg23
I0
sg24
S'package_modeler'
p1478
sg26
Nsg27
S'/opt/ros/melodic/lib/turtlesim/mimic'
p1479
sbsS'topic_tools/throttle'
p1480
g0
(g9
g2
Ntp1481
Rp1482
(dp1483
g13
Nsg14
Nsg15
I00
sg16
S'topic_tools/throttle'
p1484
sg18
Nsg19
S'topic_tools'
p1485
sg21
Nsg22
Nsg23
I0
sg24
S'package_modeler'
p1486
sg26
Nsg27
S'/opt/ros/melodic/lib/topic_tools/throttle'
p1487
sbsS'roscpp_tutorials/timers'
p1488
g0
(g9
g2
Ntp1489
Rp1490
(dp1491
g13
Nsg14
Nsg15
I00
sg16
S'roscpp_tutorials/timers'
p1492
sg18
Nsg19
S'roscpp_tutorials'
p1493
sg21
Nsg22
Nsg23
I0
sg24
S'package_modeler'
p1494
sg26
Nsg27
S'/opt/ros/melodic/lib/roscpp_tutorials/timers'
p1495
sbsS'xacro/xacro'
p1496
g0
(g9
g2
Ntp1497
Rp1498
(dp1499
g13
Nsg14
Nsg15
I00
sg16
S'xacro/xacro'
p1500
sg18
Nsg19
S'xacro'
p1501
sg21
Nsg22
Nsg23
I0
sg24
S'package_modeler'
p1502
sg26
Nsg27
(lp1503
S'/opt/ros/melodic/lib/xacro/xacro'
p1504
aS'/opt/ros/melodic/share/xacro/xacro.py'
p1505
asbsS'actionlib_tutorials/gen_numbers'
p1506
g0
(g9
g2
Ntp1507
Rp1508
(dp1509
g13
Nsg14
Nsg15
I00
sg16
S'actionlib_tutorials/gen_numbers'
p1510
sg18
Nsg19
S'actionlib_tutorials'
p1511
sg21
Nsg22
Nsg23
I0
sg24
S'package_modeler'
p1512
sg26
Nsg27
S'/opt/ros/melodic/lib/actionlib_tutorials/gen_numbers.py'
p1513
sbsS'laser_assembler/laser_scan_assembler'
p1514
g0
(g9
g2
Ntp1515
Rp1516
(dp1517
g13
Nsg14
Nsg15
I00
sg16
S'laser_assembler/laser_scan_assembler'
p1518
sg18
Nsg19
S'laser_assembler'
p1519
sg21
Nsg22
Nsg23
I0
sg24
S'package_modeler'
p1520
sg26
Nsg27
S'/opt/ros/melodic/lib/laser_assembler/laser_scan_assembler'
p1521
sbsS'image_proc/image_proc'
p1522
g0
(g9
g2
Ntp1523
Rp1524
(dp1525
g13
Nsg14
Nsg15
I00
sg16
S'image_proc/image_proc'
p1526
sg18
Nsg19
S'image_proc'
p1527
sg21
Nsg22
Nsg23
I0
sg24
S'package_modeler'
p1528
sg26
Nsg27
S'/opt/ros/melodic/lib/image_proc/image_proc'
p1529
sbsS'turtle_tf/fixed_tf_broadcaster'
p1530
g0
(g9
g2
Ntp1531
Rp1532
(dp1533
g13
Nsg14
Nsg15
I00
sg16
S'turtle_tf/fixed_tf_broadcaster'
p1534
sg18
Nsg19
S'turtle_tf'
p1535
sg21
Nsg22
Nsg23
I0
sg24
S'package_modeler'
p1536
sg26
Nsg27
S'/opt/ros/melodic/lib/turtle_tf/fixed_tf_broadcaster.py'
p1537
sbsS'actionlib/library'
p1538
g0
(g9
g2
Ntp1539
Rp1540
(dp1541
g13
Nsg14
Nsg15
I00
sg16
S'actionlib/library'
p1542
sg18
Nsg19
S'actionlib'
p1543
sg21
Nsg22
Nsg23
I0
sg24
S'package_modeler'
p1544
sg26
Nsg27
S'/opt/ros/melodic/lib/actionlib/library.py'
p1545
sbsS'robot_upstart/mkxacro'
p1546
g0
(g9
g2
Ntp1547
Rp1548
(dp1549
g13
Nsg14
Nsg15
I00
sg16
S'robot_upstart/mkxacro'
p1550
sg18
Nsg19
S'robot_upstart'
p1551
sg21
Nsg22
Nsg23
I0
sg24
S'package_modeler'
p1552
sg26
Nsg27
S'/opt/ros/melodic/lib/robot_upstart/mkxacro'
p1553
sbsS'pluginlib/pluginlib_headers_migration'
p1554
g0
(g9
g2
Ntp1555
Rp1556
(dp1557
g13
Nsg14
Nsg15
I00
sg16
S'pluginlib/pluginlib_headers_migration'
p1558
sg18
Nsg19
S'pluginlib'
p1559
sg21
Nsg22
Nsg23
I0
sg24
S'package_modeler'
p1560
sg26
Nsg27
S'/opt/ros/melodic/lib/pluginlib/pluginlib_headers_migration.py'
p1561
sbsS'global_planner/planner'
p1562
g0
(g9
g2
Ntp1563
Rp1564
(dp1565
g13
Nsg14
Nsg15
I00
sg16
S'global_planner/planner'
p1566
sg18
Nsg19
S'global_planner'
p1567
sg21
Nsg22
Nsg23
I0
sg24
S'package_modeler'
p1568
sg26
Nsg27
S'/opt/ros/melodic/lib/global_planner/planner'
p1569
sbsS'topic_tools/transform'
p1570
g0
(g9
g2
Ntp1571
Rp1572
(dp1573
g13
Nsg14
Nsg15
I00
sg16
S'topic_tools/transform'
p1574
sg18
Nsg19
S'topic_tools'
p1575
sg21
Nsg22
Nsg23
I0
sg24
S'package_modeler'
p1576
sg26
Nsg27
S'/opt/ros/melodic/lib/topic_tools/transform'
p1577
sbsS'robot_upstart/getifip'
p1578
g0
(g9
g2
Ntp1579
Rp1580
(dp1581
g13
Nsg14
Nsg15
I00
sg16
S'robot_upstart/getifip'
p1582
sg18
Nsg19
S'robot_upstart'
p1583
sg21
Nsg22
Nsg23
I0
sg24
S'package_modeler'
p1584
sg26
Nsg27
S'/opt/ros/melodic/lib/robot_upstart/getifip'
p1585
sbsS'cartographer_ros/cartographer_start_trajectory'
p1586
g0
(g9
g2
Ntp1587
Rp1588
(dp1589
g13
Nsg14
Nsg15
I00
sg16
S'cartographer_ros/cartographer_start_trajectory'
p1590
sg18
Nsg19
S'cartographer_ros'
p1591
sg21
Nsg22
Nsg23
I0
sg24
S'package_modeler'
p1592
sg26
Nsg27
S'/opt/ros/melodic/lib/cartographer_ros/cartographer_start_trajectory'
p1593
sbsS'laser_assembler/point_cloud_assembler_srv'
p1594
g0
(g9
g2
Ntp1595
Rp1596
(dp1597
g13
Nsg14
Nsg15
I00
sg16
S'laser_assembler/point_cloud_assembler_srv'
p1598
sg18
Nsg19
S'laser_assembler'
p1599
sg21
Nsg22
Nsg23
I0
sg24
S'package_modeler'
p1600
sg26
Nsg27
S'/opt/ros/melodic/lib/laser_assembler/point_cloud_assembler_srv'
p1601
sbsS'roslisp/make_exe_script'
p1602
g0
(g9
g2
Ntp1603
Rp1604
(dp1605
g13
Nsg14
Nsg15
I00
sg16
S'roslisp/make_exe_script'
p1606
sg18
Nsg19
S'roslisp'
p1607
sg21
Nsg22
Nsg23
I0
sg24
S'package_modeler'
p1608
sg26
Nsg27
S'/opt/ros/melodic/share/roslisp/scripts/make_exe_script'
p1609
sbsS'tf/bullet_migration_sed'
p1610
g0
(g9
g2
Ntp1611
Rp1612
(dp1613
g13
Nsg14
Nsg15
I00
sg16
S'tf/bullet_migration_sed'
p1614
sg18
Nsg19
S'tf'
p1615
sg21
Nsg22
Nsg23
I0
sg24
S'package_modeler'
p1616
sg26
Nsg27
S'/opt/ros/melodic/lib/tf/bullet_migration_sed.py'
p1617
sbsS'chris_scripts/rm_from_workspace'
p1618
g0
(g9
g2
Ntp1619
Rp1620
(dp1621
g13
Nsg14
Nsg15
I00
sg16
S'chris_scripts/rm_from_workspace'
p1622
sg18
Nsg19
S'chris_scripts'
p1623
sg21
Nsg22
Nsg23
I0
sg24
S'package_modeler'
p1624
sg26
Nsg27
S'/home/robotics/robotics/src/chris_scripts/scripts/rm_from_workspace.sh'
p1625
sbsS'image_view/extract_images_sync'
p1626
g0
(g9
g2
Ntp1627
Rp1628
(dp1629
g13
Nsg14
Nsg15
I00
sg16
S'image_view/extract_images_sync'
p1630
sg18
Nsg19
S'image_view'
p1631
sg21
Nsg22
Nsg23
I0
sg24
S'package_modeler'
p1632
sg26
Nsg27
S'/opt/ros/melodic/lib/image_view/extract_images_sync'
p1633
sbsS'image_transport/list_transports'
p1634
g0
(g9
g2
Ntp1635
Rp1636
(dp1637
g13
Nsg14
Nsg15
I00
sg16
S'image_transport/list_transports'
p1638
sg18
Nsg19
S'image_transport'
p1639
sg21
Nsg22
Nsg23
I0
sg24
S'package_modeler'
p1640
sg26
Nsg27
S'/opt/ros/melodic/lib/image_transport/list_transports'
p1641
sbsS'rqt_console/rqt_console'
p1642
g0
(g9
g2
Ntp1643
Rp1644
(dp1645
g13
Nsg14
Nsg15
I00
sg16
S'rqt_console/rqt_console'
p1646
sg18
Nsg19
S'rqt_console'
p1647
sg21
Nsg22
Nsg23
I0
sg24
S'package_modeler'
p1648
sg26
Nsg27
S'/opt/ros/melodic/lib/rqt_console/rqt_console'
p1649
sbsS'turtlesim/turtle_teleop_key'
p1650
g0
(g9
g2
Ntp1651
Rp1652
(dp1653
g13
Nsg14
Nsg15
I00
sg16
S'turtlesim/turtle_teleop_key'
p1654
sg18
Nsg19
S'turtlesim'
p1655
sg21
Nsg22
Nsg23
I0
sg24
S'package_modeler'
p1656
sg26
Nsg27
S'/opt/ros/melodic/lib/turtlesim/turtle_teleop_key'
p1657
sbsS'rosserial_python/serial_node'
p1658
g0
(g9
g2
Ntp1659
Rp1660
(dp1661
g13
Nsg14
Nsg15
I00
sg16
S'rosserial_python/serial_node'
p1662
sg18
Nsg19
S'rosserial_python'
p1663
sg21
Nsg22
Nsg23
I0
sg24
S'package_modeler'
p1664
sg26
Nsg27
S'/opt/ros/melodic/lib/rosserial_python/serial_node.py'
p1665
sbsS'theora_image_transport/ogg_saver'
p1666
g0
(g9
g2
Ntp1667
Rp1668
(dp1669
g13
Nsg14
Nsg15
I00
sg16
S'theora_image_transport/ogg_saver'
p1670
sg18
Nsg19
S'theora_image_transport'
p1671
sg21
Nsg22
Nsg23
I0
sg24
S'package_modeler'
p1672
sg26
Nsg27
S'/opt/ros/melodic/lib/theora_image_transport/ogg_saver'
p1673
sbsS'chris_ros_snapshot/ros_snapshot'
p1674
g0
(g9
g2
Ntp1675
Rp1676
(dp1677
g13
Nsg14
Nsg15
I00
sg16
S'chris_ros_snapshot/ros_snapshot'
p1678
sg18
Nsg19
S'chris_ros_snapshot'
p1679
sg21
Nsg22
Nsg23
I0
sg24
S'package_modeler'
p1680
sg26
Nsg27
S'/home/robotics/robotics/src/ros_probe/chris_ros_snapshot/bin/ros_snapshot'
p1681
sbsS'gazebo_plugins/pub_joint_trajectory_test'
p1682
g0
(g9
g2
Ntp1683
Rp1684
(dp1685
g13
Nsg14
Nsg15
I00
sg16
S'gazebo_plugins/pub_joint_trajectory_test'
p1686
sg18
Nsg19
S'gazebo_plugins'
p1687
sg21
Nsg22
Nsg23
I0
sg24
S'package_modeler'
p1688
sg26
Nsg27
S'/opt/ros/melodic/lib/gazebo_plugins/pub_joint_trajectory_test'
p1689
sbsS'actionlib_tutorials/fibonacci_server'
p1690
g0
(g9
g2
Ntp1691
Rp1692
(dp1693
g13
Nsg14
Nsg15
I00
sg16
S'actionlib_tutorials/fibonacci_server'
p1694
sg18
Nsg19
S'actionlib_tutorials'
p1695
sg21
Nsg22
Nsg23
I0
sg24
S'package_modeler'
p1696
sg26
Nsg27
(lp1697
S'/opt/ros/melodic/lib/actionlib_tutorials/fibonacci_server.py'
p1698
aS'/opt/ros/melodic/lib/actionlib_tutorials/fibonacci_server'
p1699
asbsS'genmsg/genmsg_check_deps'
p1700
g0
(g9
g2
Ntp1701
Rp1702
(dp1703
g13
Nsg14
Nsg15
I00
sg16
S'genmsg/genmsg_check_deps'
p1704
sg18
Nsg19
S'genmsg'
p1705
sg21
Nsg22
Nsg23
I0
sg24
S'package_modeler'
p1706
sg26
Nsg27
S'/opt/ros/melodic/lib/genmsg/genmsg_check_deps.py'
p1707
sbsS'fake_localization/fake_localization'
p1708
g0
(g9
g2
Ntp1709
Rp1710
(dp1711
g13
Nsg14
Nsg15
I00
sg16
S'fake_localization/fake_localization'
p1712
sg18
Nsg19
S'fake_localization'
p1713
sg21
Nsg22
Nsg23
I0
sg24
S'package_modeler'
p1714
sg26
Nsg27
S'/opt/ros/melodic/lib/fake_localization/fake_localization'
p1715
sbsS'actionlib_msgs/genaction'
p1716
g0
(g9
g2
Ntp1717
Rp1718
(dp1719
g13
Nsg14
Nsg15
I00
sg16
S'actionlib_msgs/genaction'
p1720
sg18
Nsg19
S'actionlib_msgs'
p1721
sg21
Nsg22
Nsg23
I0
sg24
S'package_modeler'
p1722
sg26
Nsg27
S'/opt/ros/melodic/lib/actionlib_msgs/genaction.py'
p1723
sbsS'roscpp_tutorials/add_two_ints_server'
p1724
g0
(g9
g2
Ntp1725
Rp1726
(dp1727
g13
Nsg14
Nsg15
I00
sg16
S'roscpp_tutorials/add_two_ints_server'
p1728
sg18
Nsg19
S'roscpp_tutorials'
p1729
sg21
Nsg22
Nsg23
I0
sg24
S'package_modeler'
p1730
sg26
Nsg27
S'/opt/ros/melodic/lib/roscpp_tutorials/add_two_ints_server'
p1731
sbsS'cartographer_ros/cartographer_pbstream_map_publisher'
p1732
g0
(g9
g2
Ntp1733
Rp1734
(dp1735
g13
Nsg14
Nsg15
I00
sg16
S'cartographer_ros/cartographer_pbstream_map_publisher'
p1736
sg18
Nsg19
S'cartographer_ros'
p1737
sg21
Nsg22
Nsg23
I0
sg24
S'package_modeler'
p1738
sg26
Nsg27
S'/opt/ros/melodic/lib/cartographer_ros/cartographer_pbstream_map_publisher'
p1739
sbsS'gazebo_plugins/set_pose'
p1740
g0
(g9
g2
Ntp1741
Rp1742
(dp1743
g13
Nsg14
Nsg15
I00
sg16
S'gazebo_plugins/set_pose'
p1744
sg18
Nsg19
S'gazebo_plugins'
p1745
sg21
Nsg22
Nsg23
I0
sg24
S'package_modeler'
p1746
sg26
Nsg27
S'/opt/ros/melodic/lib/gazebo_plugins/set_pose.py'
p1747
sbsS'camera_calibration/tarfile_calibration'
p1748
g0
(g9
g2
Ntp1749
Rp1750
(dp1751
g13
Nsg14
Nsg15
I00
sg16
S'camera_calibration/tarfile_calibration'
p1752
sg18
Nsg19
S'camera_calibration'
p1753
sg21
Nsg22
Nsg23
I0
sg24
S'package_modeler'
p1754
sg26
Nsg27
S'/opt/ros/melodic/lib/camera_calibration/tarfile_calibration.py'
p1755
sbsS'rqt_tf_tree/rqt_tf_tree'
p1756
g0
(g9
g2
Ntp1757
Rp1758
(dp1759
g13
Nsg14
Nsg15
I00
sg16
S'rqt_tf_tree/rqt_tf_tree'
p1760
sg18
Nsg19
S'rqt_tf_tree'
p1761
sg21
Nsg22
Nsg23
I0
sg24
S'package_modeler'
p1762
sg26
Nsg27
S'/opt/ros/melodic/lib/rqt_tf_tree/rqt_tf_tree'
p1763
sbsS'urg_node/getID'
p1764
g0
(g9
g2
Ntp1765
Rp1766
(dp1767
g13
Nsg14
Nsg15
I00
sg16
S'urg_node/getID'
p1768
sg18
Nsg19
S'urg_node'
p1769
sg21
Nsg22
Nsg23
I0
sg24
S'package_modeler'
p1770
sg26
Nsg27
S'/opt/ros/melodic/lib/urg_node/getID'
p1771
sbsS'stereo_image_proc/stereo_image_proc'
p1772
g0
(g9
g2
Ntp1773
Rp1774
(dp1775
g13
Nsg14
Nsg15
I00
sg16
S'stereo_image_proc/stereo_image_proc'
p1776
sg18
Nsg19
S'stereo_image_proc'
p1777
sg21
Nsg22
Nsg23
I0
sg24
S'package_modeler'
p1778
sg26
Nsg27
S'/opt/ros/melodic/lib/stereo_image_proc/stereo_image_proc'
p1779
sbsS'turtlesim/draw_square'
p1780
g0
(g9
g2
Ntp1781
Rp1782
(dp1783
g13
Nsg14
Nsg15
I00
sg16
S'turtlesim/draw_square'
p1784
sg18
Nsg19
S'turtlesim'
p1785
sg21
Nsg22
Nsg23
I0
sg24
S'package_modeler'
p1786
sg26
Nsg27
S'/opt/ros/melodic/lib/turtlesim/draw_square'
p1787
sbsS'capabilities/capability_server'
p1788
g0
(g9
g2
Ntp1789
Rp1790
(dp1791
g13
Nsg14
Nsg15
I00
sg16
S'capabilities/capability_server'
p1792
sg18
Nsg19
S'capabilities'
p1793
sg21
Nsg22
Nsg23
I0
sg24
S'package_modeler'
p1794
sg26
Nsg27
S'/opt/ros/melodic/lib/capabilities/capability_server'
p1795
sbsS'robot_localization/robot_localization_listener_node'
p1796
g0
(g9
g2
Ntp1797
Rp1798
(dp1799
g13
Nsg14
Nsg15
I00
sg16
S'robot_localization/robot_localization_listener_node'
p1800
sg18
Nsg19
S'robot_localization'
p1801
sg21
Nsg22
Nsg23
I0
sg24
S'package_modeler'
p1802
sg26
Nsg27
S'/opt/ros/melodic/lib/robot_localization/robot_localization_listener_node'
p1803
sbsS'rqt_srv/rqt_srv'
p1804
g0
(g9
g2
Ntp1805
Rp1806
(dp1807
g13
Nsg14
Nsg15
I00
sg16
S'rqt_srv/rqt_srv'
p1808
sg18
Nsg19
S'rqt_srv'
p1809
sg21
Nsg22
Nsg23
I0
sg24
S'package_modeler'
p1810
sg26
Nsg27
S'/opt/ros/melodic/lib/rqt_srv/rqt_srv'
p1811
sbsS'roscpp_tutorials/time_api_sleep'
p1812
g0
(g9
g2
Ntp1813
Rp1814
(dp1815
g13
Nsg14
Nsg15
I00
sg16
S'roscpp_tutorials/time_api_sleep'
p1816
sg18
Nsg19
S'roscpp_tutorials'
p1817
sg21
Nsg22
Nsg23
I0
sg24
S'package_modeler'
p1818
sg26
Nsg27
S'/opt/ros/melodic/lib/roscpp_tutorials/time_api_sleep'
p1819
sbsS'rgbd_launch/hydro-upgrade-notice'
p1820
g0
(g9
g2
Ntp1821
Rp1822
(dp1823
g13
Nsg14
Nsg15
I00
sg16
S'rgbd_launch/hydro-upgrade-notice'
p1824
sg18
Nsg19
S'rgbd_launch'
p1825
sg21
Nsg22
Nsg23
I0
sg24
S'package_modeler'
p1826
sg26
Nsg27
S'/opt/ros/melodic/lib/rgbd_launch/hydro-upgrade-notice'
p1827
sbsS'roslisp/make_roslisp_image'
p1828
g0
(g9
g2
Ntp1829
Rp1830
(dp1831
g13
Nsg14
Nsg15
I00
sg16
S'roslisp/make_roslisp_image'
p1832
sg18
Nsg19
S'roslisp'
p1833
sg21
Nsg22
Nsg23
I0
sg24
S'package_modeler'
p1834
sg26
Nsg27
S'/opt/ros/melodic/share/roslisp/scripts/make_roslisp_image'
p1835
sbsS'pcl_ros/convert_pointcloud_to_image'
p1836
g0
(g9
g2
Ntp1837
Rp1838
(dp1839
g13
Nsg14
Nsg15
I00
sg16
S'pcl_ros/convert_pointcloud_to_image'
p1840
sg18
Nsg19
S'pcl_ros'
p1841
sg21
Nsg22
Nsg23
I0
sg24
S'package_modeler'
p1842
sg26
Nsg27
S'/opt/ros/melodic/lib/pcl_ros/convert_pointcloud_to_image'
p1843
sbsS'rqt_dep/rqt_dep'
p1844
g0
(g9
g2
Ntp1845
Rp1846
(dp1847
g13
Nsg14
Nsg15
I00
sg16
S'rqt_dep/rqt_dep'
p1848
sg18
Nsg19
S'rqt_dep'
p1849
sg21
Nsg22
Nsg23
I0
sg24
S'package_modeler'
p1850
sg26
Nsg27
S'/opt/ros/melodic/lib/rqt_dep/rqt_dep'
p1851
sbsS'roscpp_tutorials/add_two_ints_client'
p1852
g0
(g9
g2
Ntp1853
Rp1854
(dp1855
g13
Nsg14
Nsg15
I00
sg16
S'roscpp_tutorials/add_two_ints_client'
p1856
sg18
Nsg19
S'roscpp_tutorials'
p1857
sg21
Nsg22
Nsg23
I0
sg24
S'package_modeler'
p1858
sg26
Nsg27
S'/opt/ros/melodic/lib/roscpp_tutorials/add_two_ints_client'
p1859
sbsS'roslisp/run-roslisp-script'
p1860
g0
(g9
g2
Ntp1861
Rp1862
(dp1863
g13
Nsg14
Nsg15
I00
sg16
S'roslisp/run-roslisp-script'
p1864
sg18
Nsg19
S'roslisp'
p1865
sg21
Nsg22
Nsg23
I0
sg24
S'package_modeler'
p1866
sg26
Nsg27
S'/opt/ros/melodic/share/roslisp/scripts/run-roslisp-script.sh'
p1867
sbsS'rqt_topic/rqt_topic'
p1868
g0
(g9
g2
Ntp1869
Rp1870
(dp1871
g13
Nsg14
Nsg15
I00
sg16
S'rqt_topic/rqt_topic'
p1872
sg18
Nsg19
S'rqt_topic'
p1873
sg21
Nsg22
Nsg23
I0
sg24
S'package_modeler'
p1874
sg26
Nsg27
S'/opt/ros/melodic/lib/rqt_topic/rqt_topic'
p1875
sbsS'urg_c/angle_convert_test'
p1876
g0
(g9
g2
Ntp1877
Rp1878
(dp1879
g13
Nsg14
Nsg15
I00
sg16
S'urg_c/angle_convert_test'
p1880
sg18
Nsg19
S'urg_c'
p1881
sg21
Nsg22
Nsg23
I0
sg24
S'package_modeler'
p1882
sg26
Nsg27
S'/opt/ros/melodic/lib/urg_c/angle_convert_test'
p1883
sbsS'map_server/crop_map'
p1884
g0
(g9
g2
Ntp1885
Rp1886
(dp1887
g13
Nsg14
Nsg15
I00
sg16
S'map_server/crop_map'
p1888
sg18
Nsg19
S'map_server'
p1889
sg21
Nsg22
Nsg23
I0
sg24
S'package_modeler'
p1890
sg26
Nsg27
S'/opt/ros/melodic/lib/map_server/crop_map'
p1891
sbsS'gazebo_ros/gzclient'
p1892
g0
(g9
g2
Ntp1893
Rp1894
(dp1895
g13
Nsg14
Nsg15
I00
sg16
S'gazebo_ros/gzclient'
p1896
sg18
Nsg19
S'gazebo_ros'
p1897
sg21
Nsg22
Nsg23
I0
sg24
S'package_modeler'
p1898
sg26
Nsg27
S'/opt/ros/melodic/lib/gazebo_ros/gzclient'
p1899
sbsS'openni_camera/openni_node'
p1900
g0
(g9
g2
Ntp1901
Rp1902
(dp1903
g13
Nsg14
Nsg15
I00
sg16
S'openni_camera/openni_node'
p1904
sg18
Nsg19
S'openni_camera'
p1905
sg21
Nsg22
Nsg23
I0
sg24
S'package_modeler'
p1906
sg26
Nsg27
S'/opt/ros/melodic/lib/openni_camera/openni_node'
p1907
sbsS'roscpp_tutorials/listener_unreliable'
p1908
g0
(g9
g2
Ntp1909
Rp1910
(dp1911
g13
Nsg14
Nsg15
I00
sg16
S'roscpp_tutorials/listener_unreliable'
p1912
sg18
Nsg19
S'roscpp_tutorials'
p1913
sg21
Nsg22
Nsg23
I0
sg24
S'package_modeler'
p1914
sg26
Nsg27
S'/opt/ros/melodic/lib/roscpp_tutorials/listener_unreliable'
p1915
sbsS'robot_pose_ekf/robot_pose_ekf'
p1916
g0
(g9
g2
Ntp1917
Rp1918
(dp1919
g13
Nsg14
Nsg15
I00
sg16
S'robot_pose_ekf/robot_pose_ekf'
p1920
sg18
Nsg19
S'robot_pose_ekf'
p1921
sg21
Nsg22
Nsg23
I0
sg24
S'package_modeler'
p1922
sg26
Nsg27
S'/opt/ros/melodic/lib/robot_pose_ekf/robot_pose_ekf'
p1923
sbsS'move_base/move_base'
p1924
g0
(g9
g2
Ntp1925
Rp1926
(dp1927
g13
Nsg14
Nsg15
I00
sg16
S'move_base/move_base'
p1928
sg18
Nsg19
S'move_base'
p1929
sg21
Nsg22
Nsg23
I0
sg24
S'package_modeler'
p1930
sg26
Nsg27
S'/opt/ros/melodic/lib/move_base/move_base'
p1931
sbsS'laser_filters/scan_to_scan_filter_chain'
p1932
g0
(g9
g2
Ntp1933
Rp1934
(dp1935
g13
Nsg14
Nsg15
I00
sg16
S'laser_filters/scan_to_scan_filter_chain'
p1936
sg18
Nsg19
S'laser_filters'
p1937
sg21
Nsg22
Nsg23
I0
sg24
S'package_modeler'
p1938
sg26
Nsg27
S'/opt/ros/melodic/lib/laser_filters/scan_to_scan_filter_chain'
p1939
sbsS'robot_localization/ukf_localization_node'
p1940
g0
(g9
g2
Ntp1941
Rp1942
(dp1943
g13
Nsg14
Nsg15
I00
sg16
S'robot_localization/ukf_localization_node'
p1944
sg18
Nsg19
S'robot_localization'
p1945
sg21
Nsg22
Nsg23
I0
sg24
S'package_modeler'
p1946
sg26
Nsg27
S'/opt/ros/melodic/lib/robot_localization/ukf_localization_node'
p1947
sbsS'diagnostic_analysis/sparse_csv'
p1948
g0
(g9
g2
Ntp1949
Rp1950
(dp1951
g13
Nsg14
Nsg15
I00
sg16
S'diagnostic_analysis/sparse_csv'
p1952
sg18
Nsg19
S'diagnostic_analysis'
p1953
sg21
Nsg22
Nsg23
I0
sg24
S'package_modeler'
p1954
sg26
Nsg27
S'/opt/ros/melodic/lib/diagnostic_analysis/sparse_csv.py'
p1955
sbsS'roscpp_tutorials/listener'
p1956
g0
(g9
g2
Ntp1957
Rp1958
(dp1959
g13
Nsg14
Nsg15
I00
sg16
S'roscpp_tutorials/listener'
p1960
sg18
Nsg19
S'roscpp_tutorials'
p1961
sg21
Nsg22
Nsg23
I0
sg24
S'package_modeler'
p1962
sg26
Nsg27
S'/opt/ros/melodic/lib/roscpp_tutorials/listener'
p1963
sbsS'roscpp_tutorials/listener_multiple'
p1964
g0
(g9
g2
Ntp1965
Rp1966
(dp1967
g13
Nsg14
Nsg15
I00
sg16
S'roscpp_tutorials/listener_multiple'
p1968
sg18
Nsg19
S'roscpp_tutorials'
p1969
sg21
Nsg22
Nsg23
I0
sg24
S'package_modeler'
p1970
sg26
Nsg27
S'/opt/ros/melodic/lib/roscpp_tutorials/listener_multiple'
p1971
sbsS'fake_localization/static_odom_broadcaster'
p1972
g0
(g9
g2
Ntp1973
Rp1974
(dp1975
g13
Nsg14
Nsg15
I00
sg16
S'fake_localization/static_odom_broadcaster'
p1976
sg18
Nsg19
S'fake_localization'
p1977
sg21
Nsg22
Nsg23
I0
sg24
S'package_modeler'
p1978
sg26
Nsg27
S'/opt/ros/melodic/lib/fake_localization/static_odom_broadcaster.py'
p1979
sbsS'rosgraph/rosgraph'
p1980
g0
(g9
g2
Ntp1981
Rp1982
(dp1983
g13
Nsg14
Nsg15
I00
sg16
S'rosgraph/rosgraph'
p1984
sg18
Nsg19
S'rosgraph'
p1985
sg21
Nsg22
Nsg23
I0
sg24
S'package_modeler'
p1986
sg26
Nsg27
S'/opt/ros/melodic/lib/rosgraph/rosgraph'
p1987
sbsS'roslisp/test-genmsg-lisp'
p1988
g0
(g9
g2
Ntp1989
Rp1990
(dp1991
g13
Nsg14
Nsg15
I00
sg16
S'roslisp/test-genmsg-lisp'
p1992
sg18
Nsg19
S'roslisp'
p1993
sg21
Nsg22
Nsg23
I0
sg24
S'package_modeler'
p1994
sg26
Nsg27
S'/opt/ros/melodic/share/roslisp/scripts/test-genmsg-lisp'
p1995
sbsS'costmap_2d/costmap_2d_cloud'
p1996
g0
(g9
g2
Ntp1997
Rp1998
(dp1999
g13
Nsg14
Nsg15
I00
sg16
S'costmap_2d/costmap_2d_cloud'
p2000
sg18
Nsg19
S'costmap_2d'
p2001
sg21
Nsg22
Nsg23
I0
sg24
S'package_modeler'
p2002
sg26
Nsg27
S'/opt/ros/melodic/lib/costmap_2d/costmap_2d_cloud'
p2003
sbsS'interactive_marker_tutorials/selection'
p2004
g0
(g9
g2
Ntp2005
Rp2006
(dp2007
g13
Nsg14
Nsg15
I00
sg16
S'interactive_marker_tutorials/selection'
p2008
sg18
Nsg19
S'interactive_marker_tutorials'
p2009
sg21
Nsg22
Nsg23
I0
sg24
S'package_modeler'
p2010
sg26
Nsg27
S'/opt/ros/melodic/lib/interactive_marker_tutorials/selection'
p2011
sbsS'rqt_moveit/rqt_moveit'
p2012
g0
(g9
g2
Ntp2013
Rp2014
(dp2015
g13
Nsg14
Nsg15
I00
sg16
S'rqt_moveit/rqt_moveit'
p2016
sg18
Nsg19
S'rqt_moveit'
p2017
sg21
Nsg22
Nsg23
I0
sg24
S'package_modeler'
p2018
sg26
Nsg27
S'/opt/ros/melodic/lib/rqt_moveit/rqt_moveit'
p2019
sbsS'rqt_robot_steering/rqt_robot_steering'
p2020
g0
(g9
g2
Ntp2021
Rp2022
(dp2023
g13
Nsg14
Nsg15
I00
sg16
S'rqt_robot_steering/rqt_robot_steering'
p2024
sg18
Nsg19
S'rqt_robot_steering'
p2025
sg21
Nsg22
Nsg23
I0
sg24
S'package_modeler'
p2026
sg26
Nsg27
S'/opt/ros/melodic/lib/rqt_robot_steering/rqt_robot_steering'
p2027
sbsS'robot_localization/ekf_localization_node'
p2028
g0
(g9
g2
Ntp2029
Rp2030
(dp2031
g13
Nsg14
Nsg15
I00
sg16
S'robot_localization/ekf_localization_node'
p2032
sg18
Nsg19
S'robot_localization'
p2033
sg21
Nsg22
Nsg23
I0
sg24
S'package_modeler'
p2034
sg26
Nsg27
S'/opt/ros/melodic/lib/robot_localization/ekf_localization_node'
p2035
sbsS'roslib/gendeps'
p2036
g0
(g9
g2
Ntp2037
Rp2038
(dp2039
g13
Nsg14
Nsg15
I00
sg16
S'roslib/gendeps'
p2040
sg18
Nsg19
S'roslib'
p2041
sg21
Nsg22
Nsg23
I0
sg24
S'package_modeler'
p2042
sg26
Nsg27
S'/opt/ros/melodic/lib/roslib/gendeps'
p2043
sbsS'kdl_parser_py/urdf'
p2044
g0
(g9
g2
Ntp2045
Rp2046
(dp2047
g13
Nsg14
Nsg15
I00
sg16
S'kdl_parser_py/urdf'
p2048
sg18
Nsg19
S'kdl_parser_py'
p2049
sg21
Nsg22
Nsg23
I0
sg24
S'package_modeler'
p2050
sg26
Nsg27
S'/opt/ros/melodic/lib/kdl_parser_py/urdf.py'
p2051
sbsS'chris_scripts/clean'
p2052
g0
(g9
g2
Ntp2053
Rp2054
(dp2055
g13
Nsg14
Nsg15
I00
sg16
S'chris_scripts/clean'
p2056
sg18
Nsg19
S'chris_scripts'
p2057
sg21
Nsg22
Nsg23
I0
sg24
S'package_modeler'
p2058
sg26
Nsg27
S'/home/robotics/robotics/src/chris_scripts/scripts/clean.sh'
p2059
sbsS'genpy/genmsg_py'
p2060
g0
(g9
g2
Ntp2061
Rp2062
(dp2063
g13
Nsg14
Nsg15
I00
sg16
S'genpy/genmsg_py'
p2064
sg18
Nsg19
S'genpy'
p2065
sg21
Nsg22
Nsg23
I0
sg24
S'package_modeler'
p2066
sg26
Nsg27
S'/opt/ros/melodic/lib/genpy/genmsg_py.py'
p2067
sbsS'urg_node/set_urg_ip'
p2068
g0
(g9
g2
Ntp2069
Rp2070
(dp2071
g13
Nsg14
Nsg15
I00
sg16
S'urg_node/set_urg_ip'
p2072
sg18
Nsg19
S'urg_node'
p2073
sg21
Nsg22
Nsg23
I0
sg24
S'package_modeler'
p2074
sg26
Nsg27
S'/opt/ros/melodic/lib/urg_node/set_urg_ip.py'
p2075
sbsS'teleop_twist_joy/teleop_node'
p2076
g0
(g9
g2
Ntp2077
Rp2078
(dp2079
g13
Nsg14
Nsg15
I00
sg16
S'teleop_twist_joy/teleop_node'
p2080
sg18
Nsg19
S'teleop_twist_joy'
p2081
sg21
Nsg22
Nsg23
I0
sg24
S'package_modeler'
p2082
sg26
Nsg27
S'/opt/ros/melodic/lib/teleop_twist_joy/teleop_node'
p2083
sbsS'actionlib_tutorials/fibonacci_client'
p2084
g0
(g9
g2
Ntp2085
Rp2086
(dp2087
g13
Nsg14
Nsg15
I00
sg16
S'actionlib_tutorials/fibonacci_client'
p2088
sg18
Nsg19
S'actionlib_tutorials'
p2089
sg21
Nsg22
Nsg23
I0
sg24
S'package_modeler'
p2090
sg26
Nsg27
(lp2091
S'/opt/ros/melodic/lib/actionlib_tutorials/fibonacci_client.py'
p2092
aS'/opt/ros/melodic/lib/actionlib_tutorials/fibonacci_client'
p2093
asbsS'cartographer_ros/cartographer_pbstream_to_ros_map'
p2094
g0
(g9
g2
Ntp2095
Rp2096
(dp2097
g13
Nsg14
Nsg15
I00
sg16
S'cartographer_ros/cartographer_pbstream_to_ros_map'
p2098
sg18
Nsg19
S'cartographer_ros'
p2099
sg21
Nsg22
Nsg23
I0
sg24
S'package_modeler'
p2100
sg26
Nsg27
S'/opt/ros/melodic/lib/cartographer_ros/cartographer_pbstream_to_ros_map'
p2101
sbsS'rosbag/fixbag_batch'
p2102
g0
(g9
g2
Ntp2103
Rp2104
(dp2105
g13
Nsg14
Nsg15
I00
sg16
S'rosbag/fixbag_batch'
p2106
sg18
Nsg19
S'rosbag'
p2107
sg21
Nsg22
Nsg23
I0
sg24
S'package_modeler'
p2108
sg26
Nsg27
S'/opt/ros/melodic/lib/rosbag/fixbag_batch.py'
p2109
sbsS'rviz/rviz'
p2110
g0
(g9
g2
Ntp2111
Rp2112
(dp2113
g13
Nsg14
Nsg15
I00
sg16
S'rviz/rviz'
p2114
sg18
Nsg19
S'rviz'
p2115
sg21
Nsg22
Nsg23
I0
sg24
S'package_modeler'
p2116
sg26
Nsg27
S'/opt/ros/melodic/lib/rviz/rviz'
p2117
sbsS'roscpp_tutorials/custom_callback_processing'
p2118
g0
(g9
g2
Ntp2119
Rp2120
(dp2121
g13
Nsg14
Nsg15
I00
sg16
S'roscpp_tutorials/custom_callback_processing'
p2122
sg18
Nsg19
S'roscpp_tutorials'
p2123
sg21
Nsg22
Nsg23
I0
sg24
S'package_modeler'
p2124
sg26
Nsg27
S'/opt/ros/melodic/lib/roscpp_tutorials/custom_callback_processing'
p2125
sbsS'turtle_tf/turtle_tf_message_broadcaster'
p2126
g0
(g9
g2
Ntp2127
Rp2128
(dp2129
g13
Nsg14
Nsg15
I00
sg16
S'turtle_tf/turtle_tf_message_broadcaster'
p2130
sg18
Nsg19
S'turtle_tf'
p2131
sg21
Nsg22
Nsg23
I0
sg24
S'package_modeler'
p2132
sg26
Nsg27
S'/opt/ros/melodic/lib/turtle_tf/turtle_tf_message_broadcaster.py'
p2133
sbsS'topic_tools/mux_select'
p2134
g0
(g9
g2
Ntp2135
Rp2136
(dp2137
g13
Nsg14
Nsg15
I00
sg16
S'topic_tools/mux_select'
p2138
sg18
Nsg19
S'topic_tools'
p2139
sg21
Nsg22
Nsg23
I0
sg24
S'package_modeler'
p2140
sg26
Nsg27
S'/opt/ros/melodic/lib/topic_tools/mux_select'
p2141
sbsS'gazebo_plugins/gazebo_model'
p2142
g0
(g9
g2
Ntp2143
Rp2144
(dp2145
g13
Nsg14
Nsg15
I00
sg16
S'gazebo_plugins/gazebo_model'
p2146
sg18
Nsg19
S'gazebo_plugins'
p2147
sg21
Nsg22
Nsg23
I0
sg24
S'package_modeler'
p2148
sg26
Nsg27
S'/opt/ros/melodic/lib/gazebo_plugins/gazebo_model'
p2149
sbsS'rosbag/makerule'
p2150
g0
(g9
g2
Ntp2151
Rp2152
(dp2153
g13
Nsg14
Nsg15
I00
sg16
S'rosbag/makerule'
p2154
sg18
Nsg19
S'rosbag'
p2155
sg21
Nsg22
Nsg23
I0
sg24
S'package_modeler'
p2156
sg26
Nsg27
S'/opt/ros/melodic/lib/rosbag/makerule.py'
p2157
sbsS'tf2_ros/buffer_server'
p2158
g0
(g9
g2
Ntp2159
Rp2160
(dp2161
g13
Nsg14
Nsg15
I00
sg16
S'tf2_ros/buffer_server'
p2162
sg18
Nsg19
S'tf2_ros'
p2163
sg21
Nsg22
Nsg23
I0
sg24
S'package_modeler'
p2164
sg26
Nsg27
S'/opt/ros/melodic/lib/tf2_ros/buffer_server'
p2165
sbsS'turtle_tf2/fixed_tf2_broadcaster'
p2166
g0
(g9
g2
Ntp2167
Rp2168
(dp2169
g13
Nsg14
Nsg15
I00
sg16
S'turtle_tf2/fixed_tf2_broadcaster'
p2170
sg18
Nsg19
S'turtle_tf2'
p2171
sg21
Nsg22
Nsg23
I0
sg24
S'package_modeler'
p2172
sg26
Nsg27
S'/opt/ros/melodic/lib/turtle_tf2/fixed_tf2_broadcaster.py'
p2173
sbsS'gazebo_plugins/set_wrench'
p2174
g0
(g9
g2
Ntp2175
Rp2176
(dp2177
g13
Nsg14
Nsg15
I00
sg16
S'gazebo_plugins/set_wrench'
p2178
sg18
Nsg19
S'gazebo_plugins'
p2179
sg21
Nsg22
Nsg23
I0
sg24
S'package_modeler'
p2180
sg26
Nsg27
S'/opt/ros/melodic/lib/gazebo_plugins/set_wrench.py'
p2181
sbsS'roscpp_tutorials/talker'
p2182
g0
(g9
g2
Ntp2183
Rp2184
(dp2185
g13
Nsg14
Nsg15
I00
sg16
S'roscpp_tutorials/talker'
p2186
sg18
Nsg19
S'roscpp_tutorials'
p2187
sg21
Nsg22
Nsg23
I0
sg24
S'package_modeler'
p2188
sg26
Nsg27
S'/opt/ros/melodic/lib/roscpp_tutorials/talker'
p2189
sbsS'laser_assembler/laser_scan_assembler_srv'
p2190
g0
(g9
g2
Ntp2191
Rp2192
(dp2193
g13
Nsg14
Nsg15
I00
sg16
S'laser_assembler/laser_scan_assembler_srv'
p2194
sg18
Nsg19
S'laser_assembler'
p2195
sg21
Nsg22
Nsg23
I0
sg24
S'package_modeler'
p2196
sg26
Nsg27
S'/opt/ros/melodic/lib/laser_assembler/laser_scan_assembler_srv'
p2197
sbsS'rqt_rviz/rqt_rviz'
p2198
g0
(g9
g2
Ntp2199
Rp2200
(dp2201
g13
Nsg14
Nsg15
I00
sg16
S'rqt_rviz/rqt_rviz'
p2202
sg18
Nsg19
S'rqt_rviz'
p2203
sg21
Nsg22
Nsg23
I0
sg24
S'package_modeler'
p2204
sg26
Nsg27
S'/opt/ros/melodic/lib/rqt_rviz/rqt_rviz'
p2205
sbsS'rqt_launch/rqt_launch'
p2206
g0
(g9
g2
Ntp2207
Rp2208
(dp2209
g13
Nsg14
Nsg15
I00
sg16
S'rqt_launch/rqt_launch'
p2210
sg18
Nsg19
S'rqt_launch'
p2211
sg21
Nsg22
Nsg23
I0
sg24
S'package_modeler'
p2212
sg26
Nsg27
S'/opt/ros/melodic/lib/rqt_launch/rqt_launch'
p2213
sbsS'camera_calibration_parsers/convert'
p2214
g0
(g9
g2
Ntp2215
Rp2216
(dp2217
g13
Nsg14
Nsg15
I00
sg16
S'camera_calibration_parsers/convert'
p2218
sg18
Nsg19
S'camera_calibration_parsers'
p2219
sg21
Nsg22
Nsg23
I0
sg24
S'package_modeler'
p2220
sg26
Nsg27
S'/opt/ros/melodic/lib/camera_calibration_parsers/convert'
p2221
sbsS'costmap_2d/costmap_2d_node'
p2222
g0
(g9
g2
Ntp2223
Rp2224
(dp2225
g13
Nsg14
Nsg15
I00
sg16
S'costmap_2d/costmap_2d_node'
p2226
sg18
Nsg19
S'costmap_2d'
p2227
sg21
Nsg22
Nsg23
I0
sg24
S'package_modeler'
p2228
sg26
Nsg27
S'/opt/ros/melodic/lib/costmap_2d/costmap_2d_node'
p2229
sbsS'cartographer_ros/cartographer_node'
p2230
g0
(g9
g2
Ntp2231
Rp2232
(dp2233
g13
Nsg14
Nsg15
I00
sg16
S'cartographer_ros/cartographer_node'
p2234
sg18
Nsg19
S'cartographer_ros'
p2235
sg21
Nsg22
Nsg23
I0
sg24
S'package_modeler'
p2236
sg26
Nsg27
S'/opt/ros/melodic/lib/cartographer_ros/cartographer_node'
p2237
sbsS'rqt_msg/rqt_msg'
p2238
g0
(g9
g2
Ntp2239
Rp2240
(dp2241
g13
Nsg14
Nsg15
I00
sg16
S'rqt_msg/rqt_msg'
p2242
sg18
Nsg19
S'rqt_msg'
p2243
sg21
Nsg22
Nsg23
I0
sg24
S'package_modeler'
p2244
sg26
Nsg27
S'/opt/ros/melodic/lib/rqt_msg/rqt_msg'
p2245
sbsS'gazebo_ros/gdbrun'
p2246
g0
(g9
g2
Ntp2247
Rp2248
(dp2249
g13
Nsg14
Nsg15
I00
sg16
S'gazebo_ros/gdbrun'
p2250
sg18
Nsg19
S'gazebo_ros'
p2251
sg21
Nsg22
Nsg23
I0
sg24
S'package_modeler'
p2252
sg26
Nsg27
S'/opt/ros/melodic/lib/gazebo_ros/gdbrun'
p2253
sbsS'chris_scripts/rm_obsolete_packages'
p2254
g0
(g9
g2
Ntp2255
Rp2256
(dp2257
g13
Nsg14
Nsg15
I00
sg16
S'chris_scripts/rm_obsolete_packages'
p2258
sg18
Nsg19
S'chris_scripts'
p2259
sg21
Nsg22
Nsg23
I0
sg24
S'package_modeler'
p2260
sg26
Nsg27
S'/home/robotics/robotics/src/chris_scripts/scripts/rm_obsolete_packages.sh'
p2261
sbsS'rosbag/topic_renamer'
p2262
g0
(g9
g2
Ntp2263
Rp2264
(dp2265
g13
Nsg14
Nsg15
I00
sg16
S'rosbag/topic_renamer'
p2266
sg18
Nsg19
S'rosbag'
p2267
sg21
Nsg22
Nsg23
I0
sg24
S'package_modeler'
p2268
sg26
Nsg27
S'/opt/ros/melodic/lib/rosbag/topic_renamer.py'
p2269
sbsS'rosserial_server/serial_node'
p2270
g0
(g9
g2
Ntp2271
Rp2272
(dp2273
g13
Nsg14
Nsg15
I00
sg16
S'rosserial_server/serial_node'
p2274
sg18
Nsg19
S'rosserial_server'
p2275
sg21
Nsg22
Nsg23
I0
sg24
S'package_modeler'
p2276
sg26
Nsg27
S'/opt/ros/melodic/lib/rosserial_server/serial_node'
p2277
sbsS'gazebo_ros/gazebo'
p2278
g0
(g9
g2
Ntp2279
Rp2280
(dp2281
g13
Nsg14
Nsg15
I00
sg16
S'gazebo_ros/gazebo'
p2282
sg18
Nsg19
S'gazebo_ros'
p2283
sg21
Nsg22
Nsg23
I0
sg24
S'package_modeler'
p2284
sg26
Nsg27
S'/opt/ros/melodic/lib/gazebo_ros/gazebo'
p2285
sbsS'topic_tools/demux'
p2286
g0
(g9
g2
Ntp2287
Rp2288
(dp2289
g13
Nsg14
Nsg15
I00
sg16
S'topic_tools/demux'
p2290
sg18
Nsg19
S'topic_tools'
p2291
sg21
Nsg22
Nsg23
I0
sg24
S'package_modeler'
p2292
sg26
Nsg27
S'/opt/ros/melodic/lib/topic_tools/demux'
p2293
sbsS'joint_state_publisher/joint_state_publisher'
p2294
g0
(g9
g2
Ntp2295
Rp2296
(dp2297
g13
Nsg14
Nsg15
I00
sg16
S'joint_state_publisher/joint_state_publisher'
p2298
sg18
Nsg19
S'joint_state_publisher'
p2299
sg21
Nsg22
Nsg23
I0
sg24
S'package_modeler'
p2300
sg26
Nsg27
S'/opt/ros/melodic/lib/joint_state_publisher/joint_state_publisher'
p2301
sbsS'topic_tools/relay'
p2302
g0
(g9
g2
Ntp2303
Rp2304
(dp2305
g13
Nsg14
Nsg15
I00
sg16
S'topic_tools/relay'
p2306
sg18
Nsg19
S'topic_tools'
p2307
sg21
Nsg22
Nsg23
I0
sg24
S'package_modeler'
p2308
sg26
Nsg27
S'/opt/ros/melodic/lib/topic_tools/relay'
p2309
sbsS'actionlib_tutorials/averaging_server'
p2310
g0
(g9
g2
Ntp2311
Rp2312
(dp2313
g13
Nsg14
Nsg15
I00
sg16
S'actionlib_tutorials/averaging_server'
p2314
sg18
Nsg19
S'actionlib_tutorials'
p2315
sg21
Nsg22
Nsg23
I0
sg24
S'package_modeler'
p2316
sg26
Nsg27
S'/opt/ros/melodic/lib/actionlib_tutorials/averaging_server'
p2317
sbsS'urg_c/sensor_parameter'
p2318
g0
(g9
g2
Ntp2319
Rp2320
(dp2321
g13
Nsg14
Nsg15
I00
sg16
S'urg_c/sensor_parameter'
p2322
sg18
Nsg19
S'urg_c'
p2323
sg21
Nsg22
Nsg23
I0
sg24
S'package_modeler'
p2324
sg26
Nsg27
S'/opt/ros/melodic/lib/urg_c/sensor_parameter'
p2325
sbsS'rqt_publisher/rqt_publisher'
p2326
g0
(g9
g2
Ntp2327
Rp2328
(dp2329
g13
Nsg14
Nsg15
I00
sg16
S'rqt_publisher/rqt_publisher'
p2330
sg18
Nsg19
S'rqt_publisher'
p2331
sg21
Nsg22
Nsg23
I0
sg24
S'package_modeler'
p2332
sg26
Nsg27
S'/opt/ros/melodic/lib/rqt_publisher/rqt_publisher'
p2333
sbsS'ar_track_alvar/findMarkerBundles'
p2334
g0
(g9
g2
Ntp2335
Rp2336
(dp2337
g13
Nsg14
Nsg15
I00
sg16
S'ar_track_alvar/findMarkerBundles'
p2338
sg18
Nsg19
S'ar_track_alvar'
p2339
sg21
Nsg22
Nsg23
I0
sg24
S'package_modeler'
p2340
sg26
Nsg27
S'/opt/ros/melodic/lib/ar_track_alvar/findMarkerBundles'
p2341
sbsS'rosserial_server/socket_node'
p2342
g0
(g9
g2
Ntp2343
Rp2344
(dp2345
g13
Nsg14
Nsg15
I00
sg16
S'rosserial_server/socket_node'
p2346
sg18
Nsg19
S'rosserial_server'
p2347
sg21
Nsg22
Nsg23
I0
sg24
S'package_modeler'
p2348
sg26
Nsg27
S'/opt/ros/melodic/lib/rosserial_server/socket_node'
p2349
sbsS'gencpp/gen_cpp'
p2350
g0
(g9
g2
Ntp2351
Rp2352
(dp2353
g13
Nsg14
Nsg15
I00
sg16
S'gencpp/gen_cpp'
p2354
sg18
Nsg19
S'gencpp'
p2355
sg21
Nsg22
Nsg23
I0
sg24
S'package_modeler'
p2356
sg26
Nsg27
S'/opt/ros/melodic/lib/gencpp/gen_cpp.py'
p2357
sbsS'gazebo_plugins/hokuyo_node'
p2358
g0
(g9
g2
Ntp2359
Rp2360
(dp2361
g13
Nsg14
Nsg15
I00
sg16
S'gazebo_plugins/hokuyo_node'
p2362
sg18
Nsg19
S'gazebo_plugins'
p2363
sg21
Nsg22
Nsg23
I0
sg24
S'package_modeler'
p2364
sg26
Nsg27
S'/opt/ros/melodic/lib/gazebo_plugins/hokuyo_node'
p2365
sbsS'rosbag/savemsg'
p2366
g0
(g9
g2
Ntp2367
Rp2368
(dp2369
g13
Nsg14
Nsg15
I00
sg16
S'rosbag/savemsg'
p2370
sg18
Nsg19
S'rosbag'
p2371
sg21
Nsg22
Nsg23
I0
sg24
S'package_modeler'
p2372
sg26
Nsg27
S'/opt/ros/melodic/lib/rosbag/savemsg.py'
p2373
sbsS'turtle_tf/turtle_tf_listener'
p2374
g0
(g9
g2
Ntp2375
Rp2376
(dp2377
g13
Nsg14
Nsg15
I00
sg16
S'turtle_tf/turtle_tf_listener'
p2378
sg18
Nsg19
S'turtle_tf'
p2379
sg21
Nsg22
Nsg23
I0
sg24
S'package_modeler'
p2380
sg26
Nsg27
(lp2381
S'/opt/ros/melodic/lib/turtle_tf/turtle_tf_listener.py'
p2382
aS'/opt/ros/melodic/lib/turtle_tf/turtle_tf_listener'
p2383
asbsS'image_view/image_view'
p2384
g0
(g9
g2
Ntp2385
Rp2386
(dp2387
g13
Nsg14
Nsg15
I00
sg16
S'image_view/image_view'
p2388
sg18
Nsg19
S'image_view'
p2389
sg21
Nsg22
Nsg23
I0
sg24
S'package_modeler'
p2390
sg26
Nsg27
S'/opt/ros/melodic/lib/image_view/image_view'
p2391
sbsS'topic_tools/mux_add'
p2392
g0
(g9
g2
Ntp2393
Rp2394
(dp2395
g13
Nsg14
Nsg15
I00
sg16
S'topic_tools/mux_add'
p2396
sg18
Nsg19
S'topic_tools'
p2397
sg21
Nsg22
Nsg23
I0
sg24
S'package_modeler'
p2398
sg26
Nsg27
S'/opt/ros/melodic/lib/topic_tools/mux_add'
p2399
sbsS'diagnostic_common_diagnostics/ntp_monitor'
p2400
g0
(g9
g2
Ntp2401
Rp2402
(dp2403
g13
Nsg14
Nsg15
I00
sg16
S'diagnostic_common_diagnostics/ntp_monitor'
p2404
sg18
Nsg19
S'diagnostic_common_diagnostics'
p2405
sg21
Nsg22
Nsg23
I0
sg24
S'package_modeler'
p2406
sg26
Nsg27
S'/opt/ros/melodic/lib/diagnostic_common_diagnostics/ntp_monitor.py'
p2407
sbsS'joy/joy_node'
p2408
g0
(g9
g2
Ntp2409
Rp2410
(dp2411
g13
Nsg14
Nsg15
I00
sg16
S'joy/joy_node'
p2412
sg18
Nsg19
S'joy'
p2413
sg21
Nsg22
Nsg23
I0
sg24
S'package_modeler'
p2414
sg26
Nsg27
S'/opt/ros/melodic/lib/joy/joy_node'
p2415
sbsS'chris_scripts/chris_status'
p2416
g0
(g9
g2
Ntp2417
Rp2418
(dp2419
g13
Nsg14
Nsg15
I00
sg16
S'chris_scripts/chris_status'
p2420
sg18
Nsg19
S'chris_scripts'
p2421
sg21
Nsg22
Nsg23
I0
sg24
S'package_modeler'
p2422
sg26
Nsg27
S'/home/robotics/robotics/src/chris_scripts/scripts/helper/chris_status.sh'
p2423
sbsS'topic_tools/switch_mux'
p2424
g0
(g9
g2
Ntp2425
Rp2426
(dp2427
g13
Nsg14
Nsg15
I00
sg16
S'topic_tools/switch_mux'
p2428
sg18
Nsg19
S'topic_tools'
p2429
sg21
Nsg22
Nsg23
I0
sg24
S'package_modeler'
p2430
sg26
Nsg27
S'/opt/ros/melodic/lib/topic_tools/switch_mux'
p2431
sbsS'tf2_kdl/test'
p2432
g0
(g9
g2
Ntp2433
Rp2434
(dp2435
g13
Nsg14
Nsg15
I00
sg16
S'tf2_kdl/test'
p2436
sg18
Nsg19
S'tf2_kdl'
p2437
sg21
Nsg22
Nsg23
I0
sg24
S'package_modeler'
p2438
sg26
Nsg27
S'/opt/ros/melodic/lib/tf2_kdl/test.py'
p2439
sbsS'roslint/test_wrapper'
p2440
g0
(g9
g2
Ntp2441
Rp2442
(dp2443
g13
Nsg14
Nsg15
I00
sg16
S'roslint/test_wrapper'
p2444
sg18
Nsg19
S'roslint'
p2445
sg21
Nsg22
Nsg23
I0
sg24
S'package_modeler'
p2446
sg26
Nsg27
S'/opt/ros/melodic/lib/roslint/test_wrapper'
p2447
sbsS'roscpp_tutorials/anonymous_listener'
p2448
g0
(g9
g2
Ntp2449
Rp2450
(dp2451
g13
Nsg14
Nsg15
I00
sg16
S'roscpp_tutorials/anonymous_listener'
p2452
sg18
Nsg19
S'roscpp_tutorials'
p2453
sg21
Nsg22
Nsg23
I0
sg24
S'package_modeler'
p2454
sg26
Nsg27
S'/opt/ros/melodic/lib/roscpp_tutorials/anonymous_listener'
p2455
sbsS'laser_assembler/point_cloud_assembler'
p2456
g0
(g9
g2
Ntp2457
Rp2458
(dp2459
g13
Nsg14
Nsg15
I00
sg16
S'laser_assembler/point_cloud_assembler'
p2460
sg18
Nsg19
S'laser_assembler'
p2461
sg21
Nsg22
Nsg23
I0
sg24
S'package_modeler'
p2462
sg26
Nsg27
S'/opt/ros/melodic/lib/laser_assembler/point_cloud_assembler'
p2463
sbsS'visualization_marker_tutorials/basic_shapes'
p2464
g0
(g9
g2
Ntp2465
Rp2466
(dp2467
g13
Nsg14
Nsg15
I00
sg16
S'visualization_marker_tutorials/basic_shapes'
p2468
sg18
Nsg19
S'visualization_marker_tutorials'
p2469
sg21
Nsg22
Nsg23
I0
sg24
S'package_modeler'
p2470
sg26
Nsg27
S'/opt/ros/melodic/lib/visualization_marker_tutorials/basic_shapes'
p2471
sbsS'navfn/navfn_node'
p2472
g0
(g9
g2
Ntp2473
Rp2474
(dp2475
g13
Nsg14
Nsg15
I00
sg16
S'navfn/navfn_node'
p2476
sg18
Nsg19
S'navfn'
p2477
sg21
Nsg22
Nsg23
I0
sg24
S'package_modeler'
p2478
sg26
Nsg27
S'/opt/ros/melodic/lib/navfn/navfn_node'
p2479
sbsS'nmea_navsat_driver/nmea_serial_driver'
p2480
g0
(g9
g2
Ntp2481
Rp2482
(dp2483
g13
Nsg14
Nsg15
I00
sg16
S'nmea_navsat_driver/nmea_serial_driver'
p2484
sg18
Nsg19
S'nmea_navsat_driver'
p2485
sg21
Nsg22
Nsg23
I0
sg24
S'package_modeler'
p2486
sg26
Nsg27
S'/opt/ros/melodic/lib/nmea_navsat_driver/nmea_serial_driver'
p2487
sbsS'laser_filters/scan_to_cloud_filter_chain'
p2488
g0
(g9
g2
Ntp2489
Rp2490
(dp2491
g13
Nsg14
Nsg15
I00
sg16
S'laser_filters/scan_to_cloud_filter_chain'
p2492
sg18
Nsg19
S'laser_filters'
p2493
sg21
Nsg22
Nsg23
I0
sg24
S'package_modeler'
p2494
sg26
Nsg27
S'/opt/ros/melodic/lib/laser_filters/scan_to_cloud_filter_chain'
p2495
sbsS'pluginlib_tutorials/polygon_loader'
p2496
g0
(g9
g2
Ntp2497
Rp2498
(dp2499
g13
Nsg14
Nsg15
I00
sg16
S'pluginlib_tutorials/polygon_loader'
p2500
sg18
Nsg19
S'pluginlib_tutorials'
p2501
sg21
Nsg22
Nsg23
I0
sg24
S'package_modeler'
p2502
sg26
Nsg27
S'/opt/ros/melodic/lib/pluginlib_tutorials/polygon_loader'
p2503
sbsS'image_rotate/image_rotate'
p2504
g0
(g9
g2
Ntp2505
Rp2506
(dp2507
g13
Nsg14
Nsg15
I00
sg16
S'image_rotate/image_rotate'
p2508
sg18
Nsg19
S'image_rotate'
p2509
sg21
Nsg22
Nsg23
I0
sg24
S'package_modeler'
p2510
sg26
Nsg27
S'/opt/ros/melodic/lib/image_rotate/image_rotate'
p2511
sbsS'urg_c/find_port'
p2512
g0
(g9
g2
Ntp2513
Rp2514
(dp2515
g13
Nsg14
Nsg15
I00
sg16
S'urg_c/find_port'
p2516
sg18
Nsg19
S'urg_c'
p2517
sg21
Nsg22
Nsg23
I0
sg24
S'package_modeler'
p2518
sg26
Nsg27
S'/opt/ros/melodic/lib/urg_c/find_port'
p2519
sbsS'controller_manager/spawner'
p2520
g0
(g9
g2
Ntp2521
Rp2522
(dp2523
g13
(dp2524
sg14
(dp2525
sg15
I01
sS'client_services'
p2526
(dp2527
S'controller_manager/load_controller'
p2528
S'controller_manager_msgs/LoadController'
p2529
sS'controller_manager/unload_controller'
p2530
S'controller_manager_msgs/UnloadController'
p2531
sS'controller_manager/switch_controller'
p2532
S'controller_manager_msgs/SwitchController'
p2533
ssg16
S'controller_manager/spawner'
p2534
sg18
(dp2535
sg19
S'controller_manager'
p2536
sg21
(dp2537
sg22
(dp2538
sg23
I2
sg24
(lp2539
g119
aS'package_modeler'
p2540
aS'ros_snapshot'
p2541
asg26
(dp2542
S'clock'
p2543
S'rosgraph_msgs/Clock'
p2544
ssg27
S'/opt/ros/melodic/lib/controller_manager/spawner'
p2545
sbsS'pcl_ros/pointcloud_to_pcd'
p2546
g0
(g9
g2
Ntp2547
Rp2548
(dp2549
g13
Nsg14
Nsg15
I00
sg16
S'pcl_ros/pointcloud_to_pcd'
p2550
sg18
Nsg19
S'pcl_ros'
p2551
sg21
Nsg22
Nsg23
I0
sg24
S'package_modeler'
p2552
sg26
Nsg27
S'/opt/ros/melodic/lib/pcl_ros/pointcloud_to_pcd'
p2553
sbsS'nmea_navsat_driver/nmea_topic_driver'
p2554
g0
(g9
g2
Ntp2555
Rp2556
(dp2557
g13
Nsg14
Nsg15
I00
sg16
S'nmea_navsat_driver/nmea_topic_driver'
p2558
sg18
Nsg19
S'nmea_navsat_driver'
p2559
sg21
Nsg22
Nsg23
I0
sg24
S'package_modeler'
p2560
sg26
Nsg27
S'/opt/ros/melodic/lib/nmea_navsat_driver/nmea_topic_driver'
p2561
sbsS'rosserial_python/message_info_service'
p2562
g0
(g9
g2
Ntp2563
Rp2564
(dp2565
g13
Nsg14
Nsg15
I00
sg16
S'rosserial_python/message_info_service'
p2566
sg18
Nsg19
S'rosserial_python'
p2567
sg21
Nsg22
Nsg23
I0
sg24
S'package_modeler'
p2568
sg26
Nsg27
S'/opt/ros/melodic/lib/rosserial_python/message_info_service.py'
p2569
sbsS'rosservice/rosservice'
p2570
g0
(g9
g2
Ntp2571
Rp2572
(dp2573
g13
Nsg14
Nsg15
I00
sg16
S'rosservice/rosservice'
p2574
sg18
Nsg19
S'rosservice'
p2575
sg21
Nsg22
Nsg23
I0
sg24
S'package_modeler'
p2576
sg26
Nsg27
S'/opt/ros/melodic/lib/rosservice/rosservice'
p2577
sbsS'map_server/map_server'
p2578
g0
(g9
g2
Ntp2579
Rp2580
(dp2581
g13
Nsg14
Nsg15
I00
sg16
S'map_server/map_server'
p2582
sg18
Nsg19
S'map_server'
p2583
sg21
Nsg22
Nsg23
I0
sg24
S'package_modeler'
p2584
sg26
Nsg27
S'/opt/ros/melodic/lib/map_server/map_server'
p2585
sbsS'nodelet/list_nodelets'
p2586
g0
(g9
g2
Ntp2587
Rp2588
(dp2589
g13
Nsg14
Nsg15
I00
sg16
S'nodelet/list_nodelets'
p2590
sg18
Nsg19
S'nodelet'
p2591
sg21
Nsg22
Nsg23
I0
sg24
S'package_modeler'
p2592
sg26
Nsg27
S'/opt/ros/melodic/lib/nodelet/list_nodelets'
p2593
sbsS'chris_rrbot_modeling/rrbot_action_demo'
p2594
g0
(g9
g2
Ntp2595
Rp2596
(dp2597
g13
(dp2598
sg14
(dp2599
S'follow_joint_trajectory'
p2600
S'control_msgs/FollowJointTrajectory'
p2601
ssg15
I01
sg16
S'chris_rrbot_modeling/rrbot_action_demo'
p2602
sg18
(dp2603
sg19
S'chris_rrbot_modeling'
p2604
sg21
(dp2605
sg22
(dp2606
sg23
I1
sg24
(lp2607
S'package_modeler'
p2608
aS'ros_snapshot'
p2609
asg26
(dp2610
S'clock'
p2611
S'rosgraph_msgs/Clock'
p2612
ssg27
S'/home/robotics/robotics/src/ros_probe/chris_rrbot_modeling/bin/rrbot_action_demo'
p2613
sbsS'controller_manager/unspawner'
p2614
g0
(g9
g2
Ntp2615
Rp2616
(dp2617
g13
Nsg14
Nsg15
I00
sg16
S'controller_manager/unspawner'
p2618
sg18
Nsg19
S'controller_manager'
p2619
sg21
Nsg22
Nsg23
I0
sg24
S'package_modeler'
p2620
sg26
Nsg27
S'/opt/ros/melodic/lib/controller_manager/unspawner'
p2621
sbsS'nmea_navsat_driver/nmea_socket_driver'
p2622
g0
(g9
g2
Ntp2623
Rp2624
(dp2625
g13
Nsg14
Nsg15
I00
sg16
S'nmea_navsat_driver/nmea_socket_driver'
p2626
sg18
Nsg19
S'nmea_navsat_driver'
p2627
sg21
Nsg22
Nsg23
I0
sg24
S'package_modeler'
p2628
sg26
Nsg27
S'/opt/ros/melodic/lib/nmea_navsat_driver/nmea_socket_driver'
p2629
sbsS'rosunit/test_results_dir'
p2630
g0
(g9
g2
Ntp2631
Rp2632
(dp2633
g13
Nsg14
Nsg15
I00
sg16
S'rosunit/test_results_dir'
p2634
sg18
Nsg19
S'rosunit'
p2635
sg21
Nsg22
Nsg23
I0
sg24
S'package_modeler'
p2636
sg26
Nsg27
S'/opt/ros/melodic/share/rosunit/scripts/test_results_dir.py'
p2637
sbsS'robot_upstart/mutate_files'
p2638
g0
(g9
g2
Ntp2639
Rp2640
(dp2641
g13
Nsg14
Nsg15
I00
sg16
S'robot_upstart/mutate_files'
p2642
sg18
Nsg19
S'robot_upstart'
p2643
sg21
Nsg22
Nsg23
I0
sg24
S'package_modeler'
p2644
sg26
Nsg27
S'/opt/ros/melodic/lib/robot_upstart/mutate_files'
p2645
sbsS'rosbag/fixbag'
p2646
g0
(g9
g2
Ntp2647
Rp2648
(dp2649
g13
Nsg14
Nsg15
I00
sg16
S'rosbag/fixbag'
p2650
sg18
Nsg19
S'rosbag'
p2651
sg21
Nsg22
Nsg23
I0
sg24
S'package_modeler'
p2652
sg26
Nsg27
S'/opt/ros/melodic/lib/rosbag/fixbag.py'
p2653
sbsS'rviz_python_tutorial/myviz'
p2654
g0
(g9
g2
Ntp2655
Rp2656
(dp2657
g13
Nsg14
Nsg15
I00
sg16
S'rviz_python_tutorial/myviz'
p2658
sg18
Nsg19
S'rviz_python_tutorial'
p2659
sg21
Nsg22
Nsg23
I0
sg24
S'package_modeler'
p2660
sg26
Nsg27
S'/opt/ros/melodic/lib/rviz_python_tutorial/myviz.py'
p2661
sbsS'rviz_plugin_tutorials/send_test_msgs'
p2662
g0
(g9
g2
Ntp2663
Rp2664
(dp2665
g13
Nsg14
Nsg15
I00
sg16
S'rviz_plugin_tutorials/send_test_msgs'
p2666
sg18
Nsg19
S'rviz_plugin_tutorials'
p2667
sg21
Nsg22
Nsg23
I0
sg24
S'package_modeler'
p2668
sg26
Nsg27
S'/opt/ros/melodic/lib/rviz_plugin_tutorials/send_test_msgs.py'
p2669
sbsS'turtle_tf/turtle_tf_listener_debug'
p2670
g0
(g9
g2
Ntp2671
Rp2672
(dp2673
g13
Nsg14
Nsg15
I00
sg16
S'turtle_tf/turtle_tf_listener_debug'
p2674
sg18
Nsg19
S'turtle_tf'
p2675
sg21
Nsg22
Nsg23
I0
sg24
S'package_modeler'
p2676
sg26
Nsg27
S'/opt/ros/melodic/lib/turtle_tf/turtle_tf_listener_debug'
p2677
sbsS'depthimage_to_laserscan/depthimage_to_laserscan'
p2678
g0
(g9
g2
Ntp2679
Rp2680
(dp2681
g13
Nsg14
Nsg15
I00
sg16
S'depthimage_to_laserscan/depthimage_to_laserscan'
p2682
sg18
Nsg19
S'depthimage_to_laserscan'
p2683
sg21
Nsg22
Nsg23
I0
sg24
S'package_modeler'
p2684
sg26
Nsg27
S'/opt/ros/melodic/lib/depthimage_to_laserscan/depthimage_to_laserscan'
p2685
sbssb.