ccopy_reg
_reconstructor
p0
(cchris_ros_modeling.deployments.machine
MachineBank
p1
c__builtin__
object
p2
Ntp3
Rp4
(dp5
S'names_to_metamodels'
p6
(dp7
S'XX.XX.XX.157'
p8
g0
(cchris_ros_modeling.deployments.machine
Machine
p9
g2
Ntp10
Rp11
(dp12
S'hostname'
p13
S'XX.XX.XX.157'
p14
sS'name'
p15
S'XX.XX.XX.157'
p16
sS'node_names'
p17
c__builtin__
set
p18
((lp19
S'/rrbot_rqt'
p20
aS'/robot_state_publisher'
p21
aS'/rrbot/controller_spawner'
p22
aS'/rrbot_control_action_19653_1598754066562'
p23
atp24
Rp25
sS'source'
p26
S'ros_snapshot'
p27
sS'version'
p28
I0
sS'ip_address'
p29
S'XX.XX.XX.157'
p30
sbsS'XX.XX.XX.216'
p31
g0
(g9
g2
Ntp32
Rp33
(dp34
g13
S'XX.XX.XX.216'
p35
sg15
S'XX.XX.XX.216'
p36
sg17
g18
((lp37
S'/gazebo'
p38
aS'/gazebo_gui'
p39
atp40
Rp41
sg26
S'ros_snapshot'
p42
sg28
I0
sg29
S'XX.XX.XX.216'
p43
sbssb.