ccopy_reg
_reconstructor
p0
(cchris_ros_modeling.deployments.nodelet
NodeletBank
p1
c__builtin__
object
p2
Ntp3
Rp4
(dp5
S'names_to_metamodels'
p6
(dp7
S'/urdf_spawner'
p8
g0
(cchris_ros_modeling.deployments.nodelet
Nodelet
p9
g2
Ntp10
Rp11
(dp12
S'action_clients'
p13
(dp14
sS'cmdline'
p15
S'-urdf -model rrbot -param robot_description'
p16
sS'client_services'
p17
(dp18
sS'cpu_percent'
p19
NsS'provided_services'
p20
(dp21
sS'source'
p22
S'haros_chris_model_merger'
p23
sS'version'
p24
I0
sS'subscribed_nodelet_topic_names'
p25
(dp26
sS'read_parameter_names'
p27
(dp28
sS'executable_file'
p29
NsS'node'
p30
S'gazebo_ros/spawn_model'
p31
sS'set_parameter_names'
p32
(dp33
sS'action_servers'
p34
(dp35
sS'memory_info'
p36
NsS'executable_name'
p37
NsS'num_threads'
p38
NsS'published_topic_names'
p39
(dp40
sS'name'
p41
g8
sS'published_nodelet_topic_names'
p42
(dp43
sS'uri'
p44
NsS'nodelet_manager_name'
p45
S''
p46
sS'memory_percent'
p47
NsS'subscribed_topic_names'
p48
(dp49
sS'launch_file'
p50
S'/home/conner/TurtleBot_Devel/src/gazebo_ros_demos/rrbot_gazebo/launch/rrbot_world.launch'
p51
sbssb.